(dp0
S'/home/paulo/Downloads/audio/SOVOOSP12A6310F1AC.mp3'
p1
cnumpy.core.multiarray
_reconstruct
p2
(cnumpy
ndarray
p3
(I0
tp4
S'b'
p5
tp6
Rp7
(I1
(I1
tp8
cnumpy
dtype
p9
(S'f8'
p10
I0
I1
tp11
Rp12
(I3
S'<'
p13
NNNI-1
I-1
I0
tp14
bI00
S'\x00\x00\x00\x00\x00\x00\xf0?'
p15
tp16
bsS'/home/paulo/Downloads/audio/SOIFDQD12AB01822F5.mp3'
p17
g2
(g3
(I0
tp18
g5
tp19
Rp20
(I1
(I1
tp21
g12
I00
S'\x00\x00\x00\x00\x00\x00\xf0?'
p22
tp23
bsS'/home/paulo/Downloads/audio/SOMRTUH12AB0185650.mp3'
p24
g2
(g3
(I0
tp25
g5
tp26
Rp27
(I1
(I1
tp28
g12
I00
S'\x00\x00\x00\x00\x00\x00\xf0?'
p29
tp30
bsS'/home/paulo/Downloads/audio/SORXQQP12AC960DAB3.mp3'
p31
g2
(g3
(I0
tp32
g5
tp33
Rp34
(I1
(I1
tp35
g12
I00
S'\x00\x00\x00\x00\x00\x00\xf0?'
p36
tp37
bsS'/home/paulo/Downloads/audio/SOMVEVM12AB01855C6.mp3'
p38
g2
(g3
(I0
tp39
g5
tp40
Rp41
(I1
(I1
tp42
g12
I00
S'\x00\x00\x00\x00\x00\x00\xf0?'
p43
tp44
bsS'/home/paulo/Downloads/audio/SOMCMKG12A8C1347BF.mp3'
p45
g2
(g3
(I0
tp46
g5
tp47
Rp48
(I1
(I1
tp49
g12
I00
S'\x00\x00\x00\x00\x00\x00\xf0?'
p50
tp51
bsS'/home/paulo/Downloads/audio/SOEYVHS12AB0181D31.mp3'
p52
g2
(g3
(I0
tp53
g5
tp54
Rp55
(I1
(I1
tp56
g12
I00
S'\x00\x00\x00\x00\x00\x00\xf0?'
p57
tp58
bsS'/home/paulo/Downloads/audio/SOVMGXI12AF72A80B0.mp3'
p59
g2
(g3
(I0
tp60
g5
tp61
Rp62
(I1
(I1
tp63
g12
I00
S'\x00\x00\x00\x00\x00\x00\xf0?'
p64
tp65
bsS'/home/paulo/Downloads/audio/SOHSHMS12A8C13BF58.mp3'
p66
g2
(g3
(I0
tp67
g5
tp68
Rp69
(I1
(I1
tp70
g12
I00
S'\x00\x00\x00\x00\x00\x00\xf0?'
p71
tp72
bsS'/home/paulo/Downloads/audio/SOWBFBP12A58A7D6EA.mp3'
p73
g2
(g3
(I0
tp74
g5
tp75
Rp76
(I1
(I1
tp77
g12
I00
S'\x00\x00\x00\x00\x00\x00\xf0?'
p78
tp79
bsS'/home/paulo/Downloads/audio/SOHXQWR12AF72AB9CD.mp3'
p80
g2
(g3
(I0
tp81
g5
tp82
Rp83
(I1
(I1
tp84
g12
I00
S'\x00\x00\x00\x00\x00\x00\xf0?'
p85
tp86
bsS'/home/paulo/Downloads/audio/SOOXRJG12A8C13773E.mp3'
p87
g2
(g3
(I0
tp88
g5
tp89
Rp90
(I1
(I1
tp91
g12
I00
S'\x00\x00\x00\x00\x00\x00\xf0?'
p92
tp93
bsS'/home/paulo/Downloads/audio/SOSQQGF12A6310F0FB.mp3'
p94
g2
(g3
(I0
tp95
g5
tp96
Rp97
(I1
(I1
tp98
g12
I00
S'\x00\x00\x00\x00\x00\x00\xf0?'
p99
tp100
bsS'/home/paulo/Downloads/audio/SOZEWZS12AB018FAF1.mp3'
p101
g2
(g3
(I0
tp102
g5
tp103
Rp104
(I1
(I1
tp105
g12
I00
S'\x00\x00\x00\x00\x00\x00\xf0?'
p106
tp107
bsS'/home/paulo/Downloads/audio/SOGSAYQ12AB018BA14.mp3'
p108
g2
(g3
(I0
tp109
g5
tp110
Rp111
(I1
(I1
tp112
g12
I00
S'\x00\x00\x00\x00\x00\x00\xf0?'
p113
tp114
bsS'/home/paulo/Downloads/audio/SOZVVRE12A8C143150.mp3'
p115
g2
(g3
(I0
tp116
g5
tp117
Rp118
(I1
(I1
tp119
g12
I00
S'\x00\x00\x00\x00\x00\x00\xf0?'
p120
tp121
bsS'/home/paulo/Downloads/audio/SOETMGH12AB01822F2.mp3'
p122
g2
(g3
(I0
tp123
g5
tp124
Rp125
(I1
(I1
tp126
g12
I00
S'\x00\x00\x00\x00\x00\x00\xf0?'
p127
tp128
bsS'/home/paulo/Downloads/audio/SOZXDDH12A8C134AE4.mp3'
p129
g2
(g3
(I0
tp130
g5
tp131
Rp132
(I1
(I1
tp133
g12
I00
S'\x00\x00\x00\x00\x00\x00\xf0?'
p134
tp135
bsS'/home/paulo/Downloads/audio/SOSXLTC12AF72A7F54.mp3'
p136
g2
(g3
(I0
tp137
g5
tp138
Rp139
(I1
(I1
tp140
g12
I00
S'\x00\x00\x00\x00\x00\x00\xf0?'
p141
tp142
bsS'/home/paulo/Downloads/audio/SOTUNOQ12A67ADADA7.mp3'
p143
g2
(g3
(I0
tp144
g5
tp145
Rp146
(I1
(I1
tp147
g12
I00
S'\x00\x00\x00\x00\x00\x00\xf0?'
p148
tp149
bsS'/home/paulo/Downloads/audio/SOZVSSP12AB01819DE.mp3'
p150
g2
(g3
(I0
tp151
g5
tp152
Rp153
(I1
(I1
tp154
g12
I00
S'\x00\x00\x00\x00\x00\x00\xf0?'
p155
tp156
bsS'/home/paulo/Downloads/audio/SOULTKQ12AB018A183.mp3'
p157
g2
(g3
(I0
tp158
g5
tp159
Rp160
(I1
(I1
tp161
g12
I00
S'\x00\x00\x00\x00\x00\x00\xf0?'
p162
tp163
bsS'/home/paulo/Downloads/audio/SOYYCTP12AB017E29C.mp3'
p164
g2
(g3
(I0
tp165
g5
tp166
Rp167
(I1
(I1
tp168
g12
I00
S'\x00\x00\x00\x00\x00\x00\xf0?'
p169
tp170
bsS'/home/paulo/Downloads/audio/SOEENHE12A8C13CA68.mp3'
p171
g2
(g3
(I0
tp172
g5
tp173
Rp174
(I1
(I1
tp175
g12
I00
S'\x00\x00\x00\x00\x00\x00\xf0?'
p176
tp177
bsS'/home/paulo/Downloads/audio/SOMEBUD12AB01869CA.mp3'
p178
g2
(g3
(I0
tp179
g5
tp180
Rp181
(I1
(I1
tp182
g12
I00
S'\x00\x00\x00\x00\x00\x00\xf0?'
p183
tp184
bsS'/home/paulo/Downloads/audio/SOVHBUI12AB0184DEB.mp3'
p185
g2
(g3
(I0
tp186
g5
tp187
Rp188
(I1
(I1
tp189
g12
I00
S'\x00\x00\x00\x00\x00\x00\xf0?'
p190
tp191
bsS'/home/paulo/Downloads/audio/SOVWADY12AB0189C63.mp3'
p192
g2
(g3
(I0
tp193
g5
tp194
Rp195
(I1
(I1
tp196
g12
I00
S'\x00\x00\x00\x00\x00\x00\xf0?'
p197
tp198
bsS'/home/paulo/Downloads/audio/SONREBX12A8C142DBA.mp3'
p199
g2
(g3
(I0
tp200
g5
tp201
Rp202
(I1
(I1
tp203
g12
I00
S'\x00\x00\x00\x00\x00\x00\xf0?'
p204
tp205
bsS'/home/paulo/Downloads/audio/SOKLQRE12A58A7BB97.mp3'
p206
g2
(g3
(I0
tp207
g5
tp208
Rp209
(I1
(I1
tp210
g12
I00
S'\x00\x00\x00\x00\x00\x00\xf0?'
p211
tp212
bsS'/home/paulo/Downloads/audio/SOFKTPP12A8C1385CA.mp3'
p213
g2
(g3
(I0
tp214
g5
tp215
Rp216
(I1
(I1
tp217
g12
I00
S'\x00\x00\x00\x00\x00\x00\xf0?'
p218
tp219
bsS'/home/paulo/Downloads/audio/SOINDRZ12A6701DAF6.mp3'
p220
g2
(g3
(I0
tp221
g5
tp222
Rp223
(I1
(I1
tp224
g12
I00
S'\x00\x00\x00\x00\x00\x00\xf0?'
p225
tp226
bsS'/home/paulo/Downloads/audio/SOKXDOB12AB017EFE7.mp3'
p227
g2
(g3
(I0
tp228
g5
tp229
Rp230
(I1
(I1
tp231
g12
I00
S'\x00\x00\x00\x00\x00\x00\xf0?'
p232
tp233
bsS'/home/paulo/Downloads/audio/SOCJWZY12A67021D18.mp3'
p234
g2
(g3
(I0
tp235
g5
tp236
Rp237
(I1
(I1
tp238
g12
I00
S'\x00\x00\x00\x00\x00\x00\xf0?'
p239
tp240
bsS'/home/paulo/Downloads/audio/SOLLDVS12AB0183835.mp3'
p241
g2
(g3
(I0
tp242
g5
tp243
Rp244
(I1
(I1
tp245
g12
I00
S'\x00\x00\x00\x00\x00\x00\xf0?'
p246
tp247
bsS'/home/paulo/Downloads/audio/SOZGDUH12AF72A6DB2.mp3'
p248
g2
(g3
(I0
tp249
g5
tp250
Rp251
(I1
(I1
tp252
g12
I00
S'\x00\x00\x00\x00\x00\x00\xf0?'
p253
tp254
bsS'/home/paulo/Downloads/audio/SOVNVRF12A8C14477B.mp3'
p255
g2
(g3
(I0
tp256
g5
tp257
Rp258
(I1
(I1
tp259
g12
I00
S'\x00\x00\x00\x00\x00\x00\xf0?'
p260
tp261
bsS'/home/paulo/Downloads/audio/SOMVPBQ12A58A7835F.mp3'
p262
g2
(g3
(I0
tp263
g5
tp264
Rp265
(I1
(I1
tp266
g12
I00
S'\x00\x00\x00\x00\x00\x00\xf0?'
p267
tp268
bsS'/home/paulo/Downloads/audio/SOOWVNN12A8C140775.mp3'
p269
g2
(g3
(I0
tp270
g5
tp271
Rp272
(I1
(I1
tp273
g12
I00
S'\x00\x00\x00\x00\x00\x00\xf0?'
p274
tp275
bsS'/home/paulo/Downloads/audio/SOTLSTC12A8C142B6B.mp3'
p276
g2
(g3
(I0
tp277
g5
tp278
Rp279
(I1
(I1
tp280
g12
I00
S'\x00\x00\x00\x00\x00\x00\xf0?'
p281
tp282
bsS'/home/paulo/Downloads/audio/SOTSPVI12A6D4FA446.mp3'
p283
g2
(g3
(I0
tp284
g5
tp285
Rp286
(I1
(I1
tp287
g12
I00
S'\x00\x00\x00\x00\x00\x00\xf0?'
p288
tp289
bsS'/home/paulo/Downloads/audio/SOAYSMC12A67020927.mp3'
p290
g2
(g3
(I0
tp291
g5
tp292
Rp293
(I1
(I1
tp294
g12
I00
S'\x00\x00\x00\x00\x00\x00\xf0?'
p295
tp296
bsS'/home/paulo/Downloads/audio/SOGAUOB12A58A7AAC8.mp3'
p297
g2
(g3
(I0
tp298
g5
tp299
Rp300
(I1
(I1
tp301
g12
I00
S'\x00\x00\x00\x00\x00\x00\xf0?'
p302
tp303
bsS'/home/paulo/Downloads/audio/SOFAFXU12A8C141523.mp3'
p304
g2
(g3
(I0
tp305
g5
tp306
Rp307
(I1
(I1
tp308
g12
I00
S'\x00\x00\x00\x00\x00\x00\xf0?'
p309
tp310
bsS'/home/paulo/Downloads/audio/SOPXSEP12A67ADE986.mp3'
p311
g2
(g3
(I0
tp312
g5
tp313
Rp314
(I1
(I1
tp315
g12
I00
S'\x00\x00\x00\x00\x00\x00\xf0?'
p316
tp317
bsS'/home/paulo/Downloads/audio/SOOFYTN12A6D4F9B35.mp3'
p318
g2
(g3
(I0
tp319
g5
tp320
Rp321
(I1
(I1
tp322
g12
I00
S'\x00\x00\x00\x00\x00\x00\xf0?'
p323
tp324
bsS'/home/paulo/Downloads/audio/SOKQMOW12A6701DEFC.mp3'
p325
g2
(g3
(I0
tp326
g5
tp327
Rp328
(I1
(I1
tp329
g12
I00
S'\x00\x00\x00\x00\x00\x00\xf0?'
p330
tp331
bsS'/home/paulo/Downloads/audio/SOYRJTL12A67AD9551.mp3'
p332
g2
(g3
(I0
tp333
g5
tp334
Rp335
(I1
(I1
tp336
g12
I00
S'\x00\x00\x00\x00\x00\x00\xf0?'
p337
tp338
bsS'/home/paulo/Downloads/audio/SOVDYZE12A58A7AA62.mp3'
p339
g2
(g3
(I0
tp340
g5
tp341
Rp342
(I1
(I1
tp343
g12
I00
S'\x00\x00\x00\x00\x00\x00\xf0?'
p344
tp345
bsS'/home/paulo/Downloads/audio/SOIOESO12A6D4F621D.mp3'
p346
g2
(g3
(I0
tp347
g5
tp348
Rp349
(I1
(I1
tp350
g12
I00
S'\x00\x00\x00\x00\x00\x00\xf0?'
p351
tp352
bsS'/home/paulo/Downloads/audio/SOZPPYS12898B694CE.mp3'
p353
g2
(g3
(I0
tp354
g5
tp355
Rp356
(I1
(I1
tp357
g12
I00
S'\x00\x00\x00\x00\x00\x00\xf0?'
p358
tp359
bsS'/home/paulo/Downloads/audio/SODGTHG12AB017F730.mp3'
p360
g2
(g3
(I0
tp361
g5
tp362
Rp363
(I1
(I1
tp364
g12
I00
S'\x00\x00\x00\x00\x00\x00\xf0?'
p365
tp366
bsS'/home/paulo/Downloads/audio/SOTHRRH12A8C13DCBA.mp3'
p367
g2
(g3
(I0
tp368
g5
tp369
Rp370
(I1
(I1
tp371
g12
I00
S'\x00\x00\x00\x00\x00\x00\xf0?'
p372
tp373
bsS'/home/paulo/Downloads/audio/SOYMEKY12A6D4F88FE.mp3'
p374
g2
(g3
(I0
tp375
g5
tp376
Rp377
(I1
(I1
tp378
g12
I00
S'\x00\x00\x00\x00\x00\x00\xf0?'
p379
tp380
bsS'/home/paulo/Downloads/audio/SOHKKFX12A58A7975B.mp3'
p381
g2
(g3
(I0
tp382
g5
tp383
Rp384
(I1
(I1
tp385
g12
I00
S'\x00\x00\x00\x00\x00\x00\xf0?'
p386
tp387
bsS'/home/paulo/Downloads/audio/SOJEVHC12A8C13C3E5.mp3'
p388
g2
(g3
(I0
tp389
g5
tp390
Rp391
(I1
(I1
tp392
g12
I00
S'\x00\x00\x00\x00\x00\x00\xf0?'
p393
tp394
bsS'/home/paulo/Downloads/audio/SOZIMYM12A8C13C707.mp3'
p395
g2
(g3
(I0
tp396
g5
tp397
Rp398
(I1
(I1
tp399
g12
I00
S'\x00\x00\x00\x00\x00\x00\xf0?'
p400
tp401
bsS'/home/paulo/Downloads/audio/SOAAFAC12A67ADF7EB.mp3'
p402
g2
(g3
(I0
tp403
g5
tp404
Rp405
(I1
(I1
tp406
g12
I00
S'\x00\x00\x00\x00\x00\x00\xf0?'
p407
tp408
bsS'/home/paulo/Downloads/audio/SODUPLP12A6D4FB8E3.mp3'
p409
g2
(g3
(I0
tp410
g5
tp411
Rp412
(I1
(I1
tp413
g12
I00
S'\x00\x00\x00\x00\x00\x00\xf0?'
p414
tp415
bsS'/home/paulo/Downloads/audio/SONIMNU12B0B8092AB.mp3'
p416
g2
(g3
(I0
tp417
g5
tp418
Rp419
(I1
(I1
tp420
g12
I00
S'\x00\x00\x00\x00\x00\x00\xf0?'
p421
tp422
bsS'/home/paulo/Downloads/audio/SOOBEOM12A58A78166.mp3'
p423
g2
(g3
(I0
tp424
g5
tp425
Rp426
(I1
(I1
tp427
g12
I00
S'\x00\x00\x00\x00\x00\x00\xf0?'
p428
tp429
bsS'/home/paulo/Downloads/audio/SOCRNTA12A8C13CCB6.mp3'
p430
g2
(g3
(I0
tp431
g5
tp432
Rp433
(I1
(I1
tp434
g12
I00
S'\x00\x00\x00\x00\x00\x00\xf0?'
p435
tp436
bsS'/home/paulo/Downloads/audio/SOMCWAZ12A67ADBCE3.mp3'
p437
g2
(g3
(I0
tp438
g5
tp439
Rp440
(I1
(I1
tp441
g12
I00
S'\x00\x00\x00\x00\x00\x00\xf0?'
p442
tp443
bsS'/home/paulo/Downloads/audio/SOBNOSD12A8C13C4E0.mp3'
p444
g2
(g3
(I0
tp445
g5
tp446
Rp447
(I1
(I1
tp448
g12
I00
S'\x00\x00\x00\x00\x00\x00\xf0?'
p449
tp450
bsS'/home/paulo/Downloads/audio/SOWFRJS12A6701D93B.mp3'
p451
g2
(g3
(I0
tp452
g5
tp453
Rp454
(I1
(I1
tp455
g12
I00
S'\x00\x00\x00\x00\x00\x00\xf0?'
p456
tp457
bsS'/home/paulo/Downloads/audio/SOXKFRI12A8C137A5F.mp3'
p458
g2
(g3
(I0
tp459
g5
tp460
Rp461
(I1
(I1
tp462
g12
I00
S'\x00\x00\x00\x00\x00\x00\xf0?'
p463
tp464
bsS'/home/paulo/Downloads/audio/SODSESK12A81C2178C.mp3'
p465
g2
(g3
(I0
tp466
g5
tp467
Rp468
(I1
(I1
tp469
g12
I00
S'\x00\x00\x00\x00\x00\x00\xf0?'
p470
tp471
bsS'/home/paulo/Downloads/audio/SOPYNHK12AB017E7D2.mp3'
p472
g2
(g3
(I0
tp473
g5
tp474
Rp475
(I1
(I1
tp476
g12
I00
S'\x00\x00\x00\x00\x00\x00\xf0?'
p477
tp478
bsS'/home/paulo/Downloads/audio/SONKHQE12A58A7C8AD.mp3'
p479
g2
(g3
(I0
tp480
g5
tp481
Rp482
(I1
(I1
tp483
g12
I00
S'\x00\x00\x00\x00\x00\x00\xf0?'
p484
tp485
bsS'/home/paulo/Downloads/audio/SOMJFXX12A8C13E9F1.mp3'
p486
g2
(g3
(I0
tp487
g5
tp488
Rp489
(I1
(I1
tp490
g12
I00
S'\x00\x00\x00\x00\x00\x00\xf0?'
p491
tp492
bsS'/home/paulo/Downloads/audio/SOQAEHC12A67020A41.mp3'
p493
g2
(g3
(I0
tp494
g5
tp495
Rp496
(I1
(I1
tp497
g12
I00
S'\x00\x00\x00\x00\x00\x00\xf0?'
p498
tp499
bsS'/home/paulo/Downloads/audio/SOXZMNC12A8C135DD5.mp3'
p500
g2
(g3
(I0
tp501
g5
tp502
Rp503
(I1
(I1
tp504
g12
I00
S'\x00\x00\x00\x00\x00\x00\xf0?'
p505
tp506
bsS'/home/paulo/Downloads/audio/SOQBPJS12A67ADA077.mp3'
p507
g2
(g3
(I0
tp508
g5
tp509
Rp510
(I1
(I1
tp511
g12
I00
S'\x00\x00\x00\x00\x00\x00\xf0?'
p512
tp513
bsS'/home/paulo/Downloads/audio/SOQLFRX12A6D4F9200.mp3'
p514
g2
(g3
(I0
tp515
g5
tp516
Rp517
(I1
(I1
tp518
g12
I00
S'\x00\x00\x00\x00\x00\x00\xf0?'
p519
tp520
bsS'/home/paulo/Downloads/audio/SOTNCZU12A8C13EDC8.mp3'
p521
g2
(g3
(I0
tp522
g5
tp523
Rp524
(I1
(I1
tp525
g12
I00
S'\x00\x00\x00\x00\x00\x00\xf0?'
p526
tp527
bsS'/home/paulo/Downloads/audio/SOGJJON12A67AD9554.mp3'
p528
g2
(g3
(I0
tp529
g5
tp530
Rp531
(I1
(I1
tp532
g12
I00
S'\x00\x00\x00\x00\x00\x00\xf0?'
p533
tp534
bsS'/home/paulo/Downloads/audio/SOJZEXX12A6D4F6247.mp3'
p535
g2
(g3
(I0
tp536
g5
tp537
Rp538
(I1
(I1
tp539
g12
I00
S'\x00\x00\x00\x00\x00\x00\xf0?'
p540
tp541
bsS'/home/paulo/Downloads/audio/SOVEHBY12A8C13F32E.mp3'
p542
g2
(g3
(I0
tp543
g5
tp544
Rp545
(I1
(I1
tp546
g12
I00
S'\x00\x00\x00\x00\x00\x00\xf0?'
p547
tp548
bsS'/home/paulo/Downloads/audio/SOSQUZL12A67ADAFCB.mp3'
p549
g2
(g3
(I0
tp550
g5
tp551
Rp552
(I1
(I1
tp553
g12
I00
S'\x00\x00\x00\x00\x00\x00\xf0?'
p554
tp555
bsS'/home/paulo/Downloads/audio/SOWKUZM12A67AE0D37.mp3'
p556
g2
(g3
(I0
tp557
g5
tp558
Rp559
(I1
(I1
tp560
g12
I00
S'\x00\x00\x00\x00\x00\x00\xf0?'
p561
tp562
bsS'/home/paulo/Downloads/audio/SOKTUOG12A8C135990.mp3'
p563
g2
(g3
(I0
tp564
g5
tp565
Rp566
(I1
(I1
tp567
g12
I00
S'\x00\x00\x00\x00\x00\x00\xf0?'
p568
tp569
bsS'/home/paulo/Downloads/audio/SOHQIBR12A6310E0ED.mp3'
p570
g2
(g3
(I0
tp571
g5
tp572
Rp573
(I1
(I1
tp574
g12
I00
S'\x00\x00\x00\x00\x00\x00\xf0?'
p575
tp576
bsS'/home/paulo/Downloads/audio/SOSFZBK12A8C137A1E.mp3'
p577
g2
(g3
(I0
tp578
g5
tp579
Rp580
(I1
(I1
tp581
g12
I00
S'\x00\x00\x00\x00\x00\x00\xf0?'
p582
tp583
bsS'/home/paulo/Downloads/audio/SOWSSRH12A58A7CE5D.mp3'
p584
g2
(g3
(I0
tp585
g5
tp586
Rp587
(I1
(I1
tp588
g12
I00
S'\x00\x00\x00\x00\x00\x00\xf0?'
p589
tp590
bsS'/home/paulo/Downloads/audio/SOVCUAX12AB017EFB5.mp3'
p591
g2
(g3
(I0
tp592
g5
tp593
Rp594
(I1
(I1
tp595
g12
I00
S'\x00\x00\x00\x00\x00\x00\xf0?'
p596
tp597
bsS'/home/paulo/Downloads/audio/SOUODFE12A58A80347.mp3'
p598
g2
(g3
(I0
tp599
g5
tp600
Rp601
(I1
(I1
tp602
g12
I00
S'\x00\x00\x00\x00\x00\x00\xf0?'
p603
tp604
bsS'/home/paulo/Downloads/audio/SOCQSZB12A58A7B71D.mp3'
p605
g2
(g3
(I0
tp606
g5
tp607
Rp608
(I1
(I1
tp609
g12
I00
S'\x00\x00\x00\x00\x00\x00\xf0?'
p610
tp611
bsS'/home/paulo/Downloads/audio/SOUSAXA12AF72A73F5.mp3'
p612
g2
(g3
(I0
tp613
g5
tp614
Rp615
(I1
(I1
tp616
g12
I00
S'\x00\x00\x00\x00\x00\x00\xf0?'
p617
tp618
bsS'/home/paulo/Downloads/audio/SOZMINK12AF72AAC26.mp3'
p619
g2
(g3
(I0
tp620
g5
tp621
Rp622
(I1
(I1
tp623
g12
I00
S'\x00\x00\x00\x00\x00\x00\xf0?'
p624
tp625
bsS'/home/paulo/Downloads/audio/SOBYDAA12A6D4F8847.mp3'
p626
g2
(g3
(I0
tp627
g5
tp628
Rp629
(I1
(I1
tp630
g12
I00
S'\x00\x00\x00\x00\x00\x00\xf0?'
p631
tp632
bsS'/home/paulo/Downloads/audio/SOBJIZY12A6701F11A.mp3'
p633
g2
(g3
(I0
tp634
g5
tp635
Rp636
(I1
(I1
tp637
g12
I00
S'\x00\x00\x00\x00\x00\x00\xf0?'
p638
tp639
bsS'/home/paulo/Downloads/audio/SOUEGBF12AB017EFD5.mp3'
p640
g2
(g3
(I0
tp641
g5
tp642
Rp643
(I1
(I1
tp644
g12
I00
S'\x00\x00\x00\x00\x00\x00\xf0?'
p645
tp646
bsS'/home/paulo/Downloads/audio/SOGUKDL12A6D4FAAB9.mp3'
p647
g2
(g3
(I0
tp648
g5
tp649
Rp650
(I1
(I1
tp651
g12
I00
S'\x00\x00\x00\x00\x00\x00\xf0?'
p652
tp653
bsS'/home/paulo/Downloads/audio/SOHODOM12A6D4FD028.mp3'
p654
g2
(g3
(I0
tp655
g5
tp656
Rp657
(I1
(I1
tp658
g12
I00
S'\x00\x00\x00\x00\x00\x00\xf0?'
p659
tp660
bsS'/home/paulo/Downloads/audio/SOINKVP12A8C13BF5D.mp3'
p661
g2
(g3
(I0
tp662
g5
tp663
Rp664
(I1
(I1
tp665
g12
I00
S'\x00\x00\x00\x00\x00\x00\xf0?'
p666
tp667
bsS'/home/paulo/Downloads/audio/SONEYTB12AF72A73F0.mp3'
p668
g2
(g3
(I0
tp669
g5
tp670
Rp671
(I1
(I1
tp672
g12
I00
S'\x00\x00\x00\x00\x00\x00\xf0?'
p673
tp674
bsS'/home/paulo/Downloads/audio/SOMJWPP12A6D4F8506.mp3'
p675
g2
(g3
(I0
tp676
g5
tp677
Rp678
(I1
(I1
tp679
g12
I00
S'\x00\x00\x00\x00\x00\x00\xf0?'
p680
tp681
bsS'/home/paulo/Downloads/audio/SOSJDQJ12A8C13D4A9.mp3'
p682
g2
(g3
(I0
tp683
g5
tp684
Rp685
(I1
(I1
tp686
g12
I00
S'\x00\x00\x00\x00\x00\x00\xf0?'
p687
tp688
bsS'/home/paulo/Downloads/audio/SOTLTXQ12AB0182257.mp3'
p689
g2
(g3
(I0
tp690
g5
tp691
Rp692
(I1
(I1
tp693
g12
I00
S'\x00\x00\x00\x00\x00\x00\xf0?'
p694
tp695
bsS'/home/paulo/Downloads/audio/SOHDSVJ12A6D4F93FF.mp3'
p696
g2
(g3
(I0
tp697
g5
tp698
Rp699
(I1
(I1
tp700
g12
I00
S'\x00\x00\x00\x00\x00\x00\xf0?'
p701
tp702
bsS'/home/paulo/Downloads/audio/SONGIPI12A8AE46162.mp3'
p703
g2
(g3
(I0
tp704
g5
tp705
Rp706
(I1
(I1
tp707
g12
I00
S'\x00\x00\x00\x00\x00\x00\xf0?'
p708
tp709
bsS'/home/paulo/Downloads/audio/SOYTDBL12A6D4F8148.mp3'
p710
g2
(g3
(I0
tp711
g5
tp712
Rp713
(I1
(I1
tp714
g12
I00
S'\x00\x00\x00\x00\x00\x00\xf0?'
p715
tp716
bsS'/home/paulo/Downloads/audio/SOTVFIU12AC46878B7.mp3'
p717
g2
(g3
(I0
tp718
g5
tp719
Rp720
(I1
(I1
tp721
g12
I00
S'\x00\x00\x00\x00\x00\x00\xf0?'
p722
tp723
bsS'/home/paulo/Downloads/audio/SOAAMOW12AB018149B.mp3'
p724
g2
(g3
(I0
tp725
g5
tp726
Rp727
(I1
(I1
tp728
g12
I00
S'\x00\x00\x00\x00\x00\x00\xf0?'
p729
tp730
bsS'/home/paulo/Downloads/audio/SOSLHMP12A8C1416C1.mp3'
p731
g2
(g3
(I0
tp732
g5
tp733
Rp734
(I1
(I1
tp735
g12
I00
S'\x00\x00\x00\x00\x00\x00\xf0?'
p736
tp737
bsS'/home/paulo/Downloads/audio/SOXZUUK12A6D4F8EE3.mp3'
p738
g2
(g3
(I0
tp739
g5
tp740
Rp741
(I1
(I1
tp742
g12
I00
S'\x00\x00\x00\x00\x00\x00\xf0?'
p743
tp744
bsS'/home/paulo/Downloads/audio/SOPOFBW12AB0187196.mp3'
p745
g2
(g3
(I0
tp746
g5
tp747
Rp748
(I1
(I1
tp749
g12
I00
S'\x00\x00\x00\x00\x00\x00\xf0?'
p750
tp751
bsS'/home/paulo/Downloads/audio/SONBXQW12A6701FD05.mp3'
p752
g2
(g3
(I0
tp753
g5
tp754
Rp755
(I1
(I1
tp756
g12
I00
S'\x00\x00\x00\x00\x00\x00\xf0?'
p757
tp758
bsS'/home/paulo/Downloads/audio/SONPLUD12A8C13BF4B.mp3'
p759
g2
(g3
(I0
tp760
g5
tp761
Rp762
(I1
(I1
tp763
g12
I00
S'\x00\x00\x00\x00\x00\x00\xf0?'
p764
tp765
bsS'/home/paulo/Downloads/audio/SOCKFVF12A8C1442A7.mp3'
p766
g2
(g3
(I0
tp767
g5
tp768
Rp769
(I1
(I1
tp770
g12
I00
S'\x00\x00\x00\x00\x00\x00\xf0?'
p771
tp772
bsS'/home/paulo/Downloads/audio/SOVTLQW12AB0186641.mp3'
p773
g2
(g3
(I0
tp774
g5
tp775
Rp776
(I1
(I1
tp777
g12
I00
S'\x00\x00\x00\x00\x00\x00\xf0?'
p778
tp779
bsS'/home/paulo/Downloads/audio/SOUFNSM12A58A77715.mp3'
p780
g2
(g3
(I0
tp781
g5
tp782
Rp783
(I1
(I1
tp784
g12
I00
S'\x00\x00\x00\x00\x00\x00\xf0?'
p785
tp786
bsS'/home/paulo/Downloads/audio/SOOTKBQ12AC3DFA4A2.mp3'
p787
g2
(g3
(I0
tp788
g5
tp789
Rp790
(I1
(I1
tp791
g12
I00
S'\x00\x00\x00\x00\x00\x00\xf0?'
p792
tp793
bsS'/home/paulo/Downloads/audio/SOCVDDD12AB017E85A.mp3'
p794
g2
(g3
(I0
tp795
g5
tp796
Rp797
(I1
(I1
tp798
g12
I00
S'\x00\x00\x00\x00\x00\x00\xf0?'
p799
tp800
bsS'/home/paulo/Downloads/audio/SOMYFOB12AAA15FD4F.mp3'
p801
g2
(g3
(I0
tp802
g5
tp803
Rp804
(I1
(I1
tp805
g12
I00
S'\x00\x00\x00\x00\x00\x00\xf0?'
p806
tp807
bsS'/home/paulo/Downloads/audio/SOKKVXX12AB017AFB7.mp3'
p808
g2
(g3
(I0
tp809
g5
tp810
Rp811
(I1
(I1
tp812
g12
I00
S'\x00\x00\x00\x00\x00\x00\xf0?'
p813
tp814
bsS'/home/paulo/Downloads/audio/SOYDNQZ12A67020A42.mp3'
p815
g2
(g3
(I0
tp816
g5
tp817
Rp818
(I1
(I1
tp819
g12
I00
S'\x00\x00\x00\x00\x00\x00\xf0?'
p820
tp821
bsS'/home/paulo/Downloads/audio/SOXZCIH12A8C1425F0.mp3'
p822
g2
(g3
(I0
tp823
g5
tp824
Rp825
(I1
(I1
tp826
g12
I00
S'\x00\x00\x00\x00\x00\x00\xf0?'
p827
tp828
bsS'/home/paulo/Downloads/audio/SOUNJIO12AB0181339.mp3'
p829
g2
(g3
(I0
tp830
g5
tp831
Rp832
(I1
(I1
tp833
g12
I00
S'\x00\x00\x00\x00\x00\x00\xf0?'
p834
tp835
bsS'/home/paulo/Downloads/audio/SOOQIEK12A8C13EA1E.mp3'
p836
g2
(g3
(I0
tp837
g5
tp838
Rp839
(I1
(I1
tp840
g12
I00
S'\x00\x00\x00\x00\x00\x00\xf0?'
p841
tp842
bsS'/home/paulo/Downloads/audio/SOKXQDO12AB017FD04.mp3'
p843
g2
(g3
(I0
tp844
g5
tp845
Rp846
(I1
(I1
tp847
g12
I00
S'\x00\x00\x00\x00\x00\x00\xf0?'
p848
tp849
bsS'/home/paulo/Downloads/audio/SOJLEMO12A6701EAF9.mp3'
p850
g2
(g3
(I0
tp851
g5
tp852
Rp853
(I1
(I1
tp854
g12
I00
S'\x00\x00\x00\x00\x00\x00\xf0?'
p855
tp856
bsS'/home/paulo/Downloads/audio/SOQPBQQ12A6701D1D8.mp3'
p857
g2
(g3
(I0
tp858
g5
tp859
Rp860
(I1
(I1
tp861
g12
I00
S'\x00\x00\x00\x00\x00\x00\xf0?'
p862
tp863
bsS'/home/paulo/Downloads/audio/SOWEWCO12A8C14074E.mp3'
p864
g2
(g3
(I0
tp865
g5
tp866
Rp867
(I1
(I1
tp868
g12
I00
S'\x00\x00\x00\x00\x00\x00\xf0?'
p869
tp870
bsS'/home/paulo/Downloads/audio/SOLBWFV12A8C13D5B2.mp3'
p871
g2
(g3
(I0
tp872
g5
tp873
Rp874
(I1
(I1
tp875
g12
I00
S'\x00\x00\x00\x00\x00\x00\xf0?'
p876
tp877
bsS'/home/paulo/Downloads/audio/SOBRREA12A6701C403.mp3'
p878
g2
(g3
(I0
tp879
g5
tp880
Rp881
(I1
(I1
tp882
g12
I00
S'\x00\x00\x00\x00\x00\x00\xf0?'
p883
tp884
bsS'/home/paulo/Downloads/audio/SOGIDSA12A8C142829.mp3'
p885
g2
(g3
(I0
tp886
g5
tp887
Rp888
(I1
(I1
tp889
g12
I00
S'\x00\x00\x00\x00\x00\x00\xf0?'
p890
tp891
bsS'/home/paulo/Downloads/audio/SOAAAGQ12A8C1420C8.mp3'
p892
g2
(g3
(I0
tp893
g5
tp894
Rp895
(I1
(I1
tp896
g12
I00
S'\x00\x00\x00\x00\x00\x00\xf0?'
p897
tp898
bsS'/home/paulo/Downloads/audio/SONUWMR12AF72A374B.mp3'
p899
g2
(g3
(I0
tp900
g5
tp901
Rp902
(I1
(I1
tp903
g12
I00
S'\x00\x00\x00\x00\x00\x00\xf0?'
p904
tp905
bsS'/home/paulo/Downloads/audio/SOKKUJN12A63110824.mp3'
p906
g2
(g3
(I0
tp907
g5
tp908
Rp909
(I1
(I1
tp910
g12
I00
S'\x00\x00\x00\x00\x00\x00\xf0?'
p911
tp912
bsS'/home/paulo/Downloads/audio/SOXCUHM12B0B8092BB.mp3'
p913
g2
(g3
(I0
tp914
g5
tp915
Rp916
(I1
(I1
tp917
g12
I00
S'\x00\x00\x00\x00\x00\x00\xf0?'
p918
tp919
bsS'/home/paulo/Downloads/audio/SOIEYZO12AB0188717.mp3'
p920
g2
(g3
(I0
tp921
g5
tp922
Rp923
(I1
(I1
tp924
g12
I00
S'\x00\x00\x00\x00\x00\x00\xf0?'
p925
tp926
bsS'/home/paulo/Downloads/audio/SOGGMMV12AB0184AEB.mp3'
p927
g2
(g3
(I0
tp928
g5
tp929
Rp930
(I1
(I1
tp931
g12
I00
S'\x00\x00\x00\x00\x00\x00\xf0?'
p932
tp933
bsS'/home/paulo/Downloads/audio/SOMMONH12A6D4F41CD.mp3'
p934
g2
(g3
(I0
tp935
g5
tp936
Rp937
(I1
(I1
tp938
g12
I00
S'\x00\x00\x00\x00\x00\x00\xf0?'
p939
tp940
bsS'/home/paulo/Downloads/audio/SONGPKC12A8C13ABD9.mp3'
p941
g2
(g3
(I0
tp942
g5
tp943
Rp944
(I1
(I1
tp945
g12
I00
S'\x00\x00\x00\x00\x00\x00\xf0?'
p946
tp947
bsS'/home/paulo/Downloads/audio/SOCDNMP12AB018440C.mp3'
p948
g2
(g3
(I0
tp949
g5
tp950
Rp951
(I1
(I1
tp952
g12
I00
S'\x00\x00\x00\x00\x00\x00\xf0?'
p953
tp954
bsS'/home/paulo/Downloads/audio/SOZVCRW12A67ADA0B7.mp3'
p955
g2
(g3
(I0
tp956
g5
tp957
Rp958
(I1
(I1
tp959
g12
I00
S'\x00\x00\x00\x00\x00\x00\xf0?'
p960
tp961
bsS'/home/paulo/Downloads/audio/SOMMATZ12AF72A17CC.mp3'
p962
g2
(g3
(I0
tp963
g5
tp964
Rp965
(I1
(I1
tp966
g12
I00
S'\x00\x00\x00\x00\x00\x00\xf0?'
p967
tp968
bsS'/home/paulo/Downloads/audio/SOQGOPT12AAF3B2B27.mp3'
p969
g2
(g3
(I0
tp970
g5
tp971
Rp972
(I1
(I1
tp973
g12
I00
S'\x00\x00\x00\x00\x00\x00\xf0?'
p974
tp975
bsS'/home/paulo/Downloads/audio/SOTMTTY12A6D4F95A1.mp3'
p976
g2
(g3
(I0
tp977
g5
tp978
Rp979
(I1
(I1
tp980
g12
I00
S'\x00\x00\x00\x00\x00\x00\xf0?'
p981
tp982
bsS'/home/paulo/Downloads/audio/SOXLKNJ12A58A7E09A.mp3'
p983
g2
(g3
(I0
tp984
g5
tp985
Rp986
(I1
(I1
tp987
g12
I00
S'\x00\x00\x00\x00\x00\x00\xf0?'
p988
tp989
bsS'/home/paulo/Downloads/audio/SOFDENQ12AB017FD79.mp3'
p990
g2
(g3
(I0
tp991
g5
tp992
Rp993
(I1
(I1
tp994
g12
I00
S'\x00\x00\x00\x00\x00\x00\xf0?'
p995
tp996
bsS'/home/paulo/Downloads/audio/SOGKGDF12AF72A5DD6.mp3'
p997
g2
(g3
(I0
tp998
g5
tp999
Rp1000
(I1
(I1
tp1001
g12
I00
S'\x00\x00\x00\x00\x00\x00\xf0?'
p1002
tp1003
bsS'/home/paulo/Downloads/audio/SOTFIPT12A6701F2FA.mp3'
p1004
g2
(g3
(I0
tp1005
g5
tp1006
Rp1007
(I1
(I1
tp1008
g12
I00
S'\x00\x00\x00\x00\x00\x00\xf0?'
p1009
tp1010
bsS'/home/paulo/Downloads/audio/SODRLEQ12A6701F953.mp3'
p1011
g2
(g3
(I0
tp1012
g5
tp1013
Rp1014
(I1
(I1
tp1015
g12
I00
S'\x00\x00\x00\x00\x00\x00\xf0?'
p1016
tp1017
bsS'/home/paulo/Downloads/audio/SOTSHYT12A8C142868.mp3'
p1018
g2
(g3
(I0
tp1019
g5
tp1020
Rp1021
(I1
(I1
tp1022
g12
I00
S'\x00\x00\x00\x00\x00\x00\xf0?'
p1023
tp1024
bsS'/home/paulo/Downloads/audio/SOEGOAB12A8C13BAE4.mp3'
p1025
g2
(g3
(I0
tp1026
g5
tp1027
Rp1028
(I1
(I1
tp1029
g12
I00
S'\x00\x00\x00\x00\x00\x00\xf0?'
p1030
tp1031
bsS'/home/paulo/Downloads/audio/SOFJOSL12AB0181CA8.mp3'
p1032
g2
(g3
(I0
tp1033
g5
tp1034
Rp1035
(I1
(I1
tp1036
g12
I00
S'\x00\x00\x00\x00\x00\x00\xf0?'
p1037
tp1038
bsS'/home/paulo/Downloads/audio/SOHEMBB12A6701E907.mp3'
p1039
g2
(g3
(I0
tp1040
g5
tp1041
Rp1042
(I1
(I1
tp1043
g12
I00
S'\x00\x00\x00\x00\x00\x00\xf0?'
p1044
tp1045
bsS'/home/paulo/Downloads/audio/SOILFUU12AB017C75F.mp3'
p1046
g2
(g3
(I0
tp1047
g5
tp1048
Rp1049
(I1
(I1
tp1050
g12
I00
S'\x00\x00\x00\x00\x00\x00\xf0?'
p1051
tp1052
bsS'/home/paulo/Downloads/audio/SOSYOHI12A8C144584.mp3'
p1053
g2
(g3
(I0
tp1054
g5
tp1055
Rp1056
(I1
(I1
tp1057
g12
I00
S'\x00\x00\x00\x00\x00\x00\xf0?'
p1058
tp1059
bsS'/home/paulo/Downloads/audio/SOFRNOJ12AB018839A.mp3'
p1060
g2
(g3
(I0
tp1061
g5
tp1062
Rp1063
(I1
(I1
tp1064
g12
I00
S'\x00\x00\x00\x00\x00\x00\xf0?'
p1065
tp1066
bsS'/home/paulo/Downloads/audio/SONFCUC12A58A7BC34.mp3'
p1067
g2
(g3
(I0
tp1068
g5
tp1069
Rp1070
(I1
(I1
tp1071
g12
I00
S'\x00\x00\x00\x00\x00\x00\xf0?'
p1072
tp1073
bsS'/home/paulo/Downloads/audio/SODHKOL12A8C141128.mp3'
p1074
g2
(g3
(I0
tp1075
g5
tp1076
Rp1077
(I1
(I1
tp1078
g12
I00
S'\x00\x00\x00\x00\x00\x00\xf0?'
p1079
tp1080
bsS'/home/paulo/Downloads/audio/SOXUYUZ12A8C13A67E.mp3'
p1081
g2
(g3
(I0
tp1082
g5
tp1083
Rp1084
(I1
(I1
tp1085
g12
I00
S'\x00\x00\x00\x00\x00\x00\xf0?'
p1086
tp1087
bsS'/home/paulo/Downloads/audio/SOMGPML12A8C13AE8C.mp3'
p1088
g2
(g3
(I0
tp1089
g5
tp1090
Rp1091
(I1
(I1
tp1092
g12
I00
S'\x00\x00\x00\x00\x00\x00\xf0?'
p1093
tp1094
bsS'/home/paulo/Downloads/audio/SOIICEQ12A6D4F7FE0.mp3'
p1095
g2
(g3
(I0
tp1096
g5
tp1097
Rp1098
(I1
(I1
tp1099
g12
I00
S'\x00\x00\x00\x00\x00\x00\xf0?'
p1100
tp1101
bsS'/home/paulo/Downloads/audio/SOKHYXV12A6D4F676A.mp3'
p1102
g2
(g3
(I0
tp1103
g5
tp1104
Rp1105
(I1
(I1
tp1106
g12
I00
S'\x00\x00\x00\x00\x00\x00\xf0?'
p1107
tp1108
bsS'/home/paulo/Downloads/audio/SOIDAAV12AB0182D50.mp3'
p1109
g2
(g3
(I0
tp1110
g5
tp1111
Rp1112
(I1
(I1
tp1113
g12
I00
S'\x00\x00\x00\x00\x00\x00\xf0?'
p1114
tp1115
bsS'/home/paulo/Downloads/audio/SOMAUYZ12A8C135979.mp3'
p1116
g2
(g3
(I0
tp1117
g5
tp1118
Rp1119
(I1
(I1
tp1120
g12
I00
S'\x00\x00\x00\x00\x00\x00\xf0?'
p1121
tp1122
bsS'/home/paulo/Downloads/audio/SORPVUD12A67020454.mp3'
p1123
g2
(g3
(I0
tp1124
g5
tp1125
Rp1126
(I1
(I1
tp1127
g12
I00
S'\x00\x00\x00\x00\x00\x00\xf0?'
p1128
tp1129
bsS'/home/paulo/Downloads/audio/SOCBWRP12A8C1311DB.mp3'
p1130
g2
(g3
(I0
tp1131
g5
tp1132
Rp1133
(I1
(I1
tp1134
g12
I00
S'\x00\x00\x00\x00\x00\x00\xf0?'
p1135
tp1136
bsS'/home/paulo/Downloads/audio/SOWDKXZ12A81C22377.mp3'
p1137
g2
(g3
(I0
tp1138
g5
tp1139
Rp1140
(I1
(I1
tp1141
g12
I00
S'\x00\x00\x00\x00\x00\x00\xf0?'
p1142
tp1143
bsS'/home/paulo/Downloads/audio/SOZZIOH12A67ADE300.mp3'
p1144
g2
(g3
(I0
tp1145
g5
tp1146
Rp1147
(I1
(I1
tp1148
g12
I00
S'\x00\x00\x00\x00\x00\x00\xf0?'
p1149
tp1150
bsS'/home/paulo/Downloads/audio/SOEJMGM12AF72A6261.mp3'
p1151
g2
(g3
(I0
tp1152
g5
tp1153
Rp1154
(I1
(I1
tp1155
g12
I00
S'\x00\x00\x00\x00\x00\x00\xf0?'
p1156
tp1157
bsS'/home/paulo/Downloads/audio/SOWNIUS12A8C142815.mp3'
p1158
g2
(g3
(I0
tp1159
g5
tp1160
Rp1161
(I1
(I1
tp1162
g12
I00
S'\x00\x00\x00\x00\x00\x00\xf0?'
p1163
tp1164
bsS'/home/paulo/Downloads/audio/SOTQMGD12A81C2289C.mp3'
p1165
g2
(g3
(I0
tp1166
g5
tp1167
Rp1168
(I1
(I1
tp1169
g12
I00
S'\x00\x00\x00\x00\x00\x00\xf0?'
p1170
tp1171
bsS'/home/paulo/Downloads/audio/SOVLJHG12A81C21AA0.mp3'
p1172
g2
(g3
(I0
tp1173
g5
tp1174
Rp1175
(I1
(I1
tp1176
g12
I00
S'\x00\x00\x00\x00\x00\x00\xf0?'
p1177
tp1178
bsS'/home/paulo/Downloads/audio/SOYYIZT12A8C1408CA.mp3'
p1179
g2
(g3
(I0
tp1180
g5
tp1181
Rp1182
(I1
(I1
tp1183
g12
I00
S'\x00\x00\x00\x00\x00\x00\xf0?'
p1184
tp1185
bsS'/home/paulo/Downloads/audio/SOFWNCW12A8151B81A.mp3'
p1186
g2
(g3
(I0
tp1187
g5
tp1188
Rp1189
(I1
(I1
tp1190
g12
I00
S'\x00\x00\x00\x00\x00\x00\xf0?'
p1191
tp1192
bsS'/home/paulo/Downloads/audio/SONEYYW12AF72A2AA6.mp3'
p1193
g2
(g3
(I0
tp1194
g5
tp1195
Rp1196
(I1
(I1
tp1197
g12
I00
S'\x00\x00\x00\x00\x00\x00\xf0?'
p1198
tp1199
bsS'/home/paulo/Downloads/audio/SOGUPIJ12A8C13AEA1.mp3'
p1200
g2
(g3
(I0
tp1201
g5
tp1202
Rp1203
(I1
(I1
tp1204
g12
I00
S'\x00\x00\x00\x00\x00\x00\xf0?'
p1205
tp1206
bsS'/home/paulo/Downloads/audio/SOMKNTR12A6D4F9CCD.mp3'
p1207
g2
(g3
(I0
tp1208
g5
tp1209
Rp1210
(I1
(I1
tp1211
g12
I00
S'\x00\x00\x00\x00\x00\x00\xf0?'
p1212
tp1213
bsS'/home/paulo/Downloads/audio/SOEMAIM12AC90759AC.mp3'
p1214
g2
(g3
(I0
tp1215
g5
tp1216
Rp1217
(I1
(I1
tp1218
g12
I00
S'\x00\x00\x00\x00\x00\x00\xf0?'
p1219
tp1220
bsS'/home/paulo/Downloads/audio/SOAGGLN12AB018AC9B.mp3'
p1221
g2
(g3
(I0
tp1222
g5
tp1223
Rp1224
(I1
(I1
tp1225
g12
I00
S'\x00\x00\x00\x00\x00\x00\xf0?'
p1226
tp1227
bsS'/home/paulo/Downloads/audio/SOHDQMI12A6D4F9A77.mp3'
p1228
g2
(g3
(I0
tp1229
g5
tp1230
Rp1231
(I1
(I1
tp1232
g12
I00
S'\x00\x00\x00\x00\x00\x00\xf0?'
p1233
tp1234
bsS'/home/paulo/Downloads/audio/SOLJQPF12A67020924.mp3'
p1235
g2
(g3
(I0
tp1236
g5
tp1237
Rp1238
(I1
(I1
tp1239
g12
I00
S'\x00\x00\x00\x00\x00\x00\xf0?'
p1240
tp1241
bsS'/home/paulo/Downloads/audio/SODTJFU12B0B80C9BE.mp3'
p1242
g2
(g3
(I0
tp1243
g5
tp1244
Rp1245
(I1
(I1
tp1246
g12
I00
S'\x00\x00\x00\x00\x00\x00\xf0?'
p1247
tp1248
bsS'/home/paulo/Downloads/audio/SOQDMED12A67ADE731.mp3'
p1249
g2
(g3
(I0
tp1250
g5
tp1251
Rp1252
(I1
(I1
tp1253
g12
I00
S'\x00\x00\x00\x00\x00\x00\xf0?'
p1254
tp1255
bsS'/home/paulo/Downloads/audio/SOBBHVN12A6702162D.mp3'
p1256
g2
(g3
(I0
tp1257
g5
tp1258
Rp1259
(I1
(I1
tp1260
g12
I00
S'\x00\x00\x00\x00\x00\x00\xf0?'
p1261
tp1262
bsS'/home/paulo/Downloads/audio/SODZJCH12A8C132ADC.mp3'
p1263
g2
(g3
(I0
tp1264
g5
tp1265
Rp1266
(I1
(I1
tp1267
g12
I00
S'\x00\x00\x00\x00\x00\x00\xf0?'
p1268
tp1269
bsS'/home/paulo/Downloads/audio/SOCXCTS12AC468A380.mp3'
p1270
g2
(g3
(I0
tp1271
g5
tp1272
Rp1273
(I1
(I1
tp1274
g12
I00
S'\x00\x00\x00\x00\x00\x00\xf0?'
p1275
tp1276
bsS'/home/paulo/Downloads/audio/SOHTKMO12AB01843B0.mp3'
p1277
g2
(g3
(I0
tp1278
g5
tp1279
Rp1280
(I1
(I1
tp1281
g12
I00
S'\x00\x00\x00\x00\x00\x00\xf0?'
p1282
tp1283
bsS'/home/paulo/Downloads/audio/SOIMREX12A6D4F99FE.mp3'
p1284
g2
(g3
(I0
tp1285
g5
tp1286
Rp1287
(I1
(I1
tp1288
g12
I00
S'\x00\x00\x00\x00\x00\x00\xf0?'
p1289
tp1290
bsS'/home/paulo/Downloads/audio/SOFPEZR12A67021B80.mp3'
p1291
g2
(g3
(I0
tp1292
g5
tp1293
Rp1294
(I1
(I1
tp1295
g12
I00
S'\x00\x00\x00\x00\x00\x00\xf0?'
p1296
tp1297
bsS'/home/paulo/Downloads/audio/SOFBOXR12A6310F0FC.mp3'
p1298
g2
(g3
(I0
tp1299
g5
tp1300
Rp1301
(I1
(I1
tp1302
g12
I00
S'\x00\x00\x00\x00\x00\x00\xf0?'
p1303
tp1304
bsS'/home/paulo/Downloads/audio/SOXLOQG12AF72A2D55.mp3'
p1305
g2
(g3
(I0
tp1306
g5
tp1307
Rp1308
(I1
(I1
tp1309
g12
I00
S'\x00\x00\x00\x00\x00\x00\xf0?'
p1310
tp1311
bsS'/home/paulo/Downloads/audio/SOBFRNE12A6D4F7995.mp3'
p1312
g2
(g3
(I0
tp1313
g5
tp1314
Rp1315
(I1
(I1
tp1316
g12
I00
S'\x00\x00\x00\x00\x00\x00\xf0?'
p1317
tp1318
bsS'/home/paulo/Downloads/audio/SOYIWVC12A8AE47F31.mp3'
p1319
g2
(g3
(I0
tp1320
g5
tp1321
Rp1322
(I1
(I1
tp1323
g12
I00
S'\x00\x00\x00\x00\x00\x00\xf0?'
p1324
tp1325
bsS'/home/paulo/Downloads/audio/SOKTJMZ12AB018C9A0.mp3'
p1326
g2
(g3
(I0
tp1327
g5
tp1328
Rp1329
(I1
(I1
tp1330
g12
I00
S'\x00\x00\x00\x00\x00\x00\xf0?'
p1331
tp1332
bsS'/home/paulo/Downloads/audio/SOHNVHC12A6D4F95AB.mp3'
p1333
g2
(g3
(I0
tp1334
g5
tp1335
Rp1336
(I1
(I1
tp1337
g12
I00
S'\x00\x00\x00\x00\x00\x00\xf0?'
p1338
tp1339
bsS'/home/paulo/Downloads/audio/SOBGNMG12A8C133DFD.mp3'
p1340
g2
(g3
(I0
tp1341
g5
tp1342
Rp1343
(I1
(I1
tp1344
g12
I00
S'\x00\x00\x00\x00\x00\x00\xf0?'
p1345
tp1346
bsS'/home/paulo/Downloads/audio/SONMKLO12AB017B593.mp3'
p1347
g2
(g3
(I0
tp1348
g5
tp1349
Rp1350
(I1
(I1
tp1351
g12
I00
S'\x00\x00\x00\x00\x00\x00\xf0?'
p1352
tp1353
bsS'/home/paulo/Downloads/audio/SOBEAHS12A6D4F97A6.mp3'
p1354
g2
(g3
(I0
tp1355
g5
tp1356
Rp1357
(I1
(I1
tp1358
g12
I00
S'\x00\x00\x00\x00\x00\x00\xf0?'
p1359
tp1360
bsS'/home/paulo/Downloads/audio/SOHAHTQ12AB017AA32.mp3'
p1361
g2
(g3
(I0
tp1362
g5
tp1363
Rp1364
(I1
(I1
tp1365
g12
I00
S'\x00\x00\x00\x00\x00\x00\xf0?'
p1366
tp1367
bsS'/home/paulo/Downloads/audio/SOYUSCG12AB0182BB5.mp3'
p1368
g2
(g3
(I0
tp1369
g5
tp1370
Rp1371
(I1
(I1
tp1372
g12
I00
S'\x00\x00\x00\x00\x00\x00\xf0?'
p1373
tp1374
bsS'/home/paulo/Downloads/audio/SOSUZFA12A8C13C04A.mp3'
p1375
g2
(g3
(I0
tp1376
g5
tp1377
Rp1378
(I1
(I1
tp1379
g12
I00
S'\x00\x00\x00\x00\x00\x00\xf0?'
p1380
tp1381
bsS'/home/paulo/Downloads/audio/SOSBYAJ12A679AE5CD.mp3'
p1382
g2
(g3
(I0
tp1383
g5
tp1384
Rp1385
(I1
(I1
tp1386
g12
I00
S'\x00\x00\x00\x00\x00\x00\xf0?'
p1387
tp1388
bsS'/home/paulo/Downloads/audio/SOVBJIV12A81C22366.mp3'
p1389
g2
(g3
(I0
tp1390
g5
tp1391
Rp1392
(I1
(I1
tp1393
g12
I00
S'\x00\x00\x00\x00\x00\x00\xf0?'
p1394
tp1395
bsS'/home/paulo/Downloads/audio/SOVHRGF12A8C13852F.mp3'
p1396
g2
(g3
(I0
tp1397
g5
tp1398
Rp1399
(I1
(I1
tp1400
g12
I00
S'\x00\x00\x00\x00\x00\x00\xf0?'
p1401
tp1402
bsS'/home/paulo/Downloads/audio/SOYIJRW12A8C134621.mp3'
p1403
g2
(g3
(I0
tp1404
g5
tp1405
Rp1406
(I1
(I1
tp1407
g12
I00
S'\x00\x00\x00\x00\x00\x00\xf0?'
p1408
tp1409
bsS'/home/paulo/Downloads/audio/SOOSIWM12A670202B9.mp3'
p1410
g2
(g3
(I0
tp1411
g5
tp1412
Rp1413
(I1
(I1
tp1414
g12
I00
S'\x00\x00\x00\x00\x00\x00\xf0?'
p1415
tp1416
bsS'/home/paulo/Downloads/audio/SOLLOWH12A3F1E9FB5.mp3'
p1417
g2
(g3
(I0
tp1418
g5
tp1419
Rp1420
(I1
(I1
tp1421
g12
I00
S'\x00\x00\x00\x00\x00\x00\xf0?'
p1422
tp1423
bsS'/home/paulo/Downloads/audio/SOWHATW12A8C132857.mp3'
p1424
g2
(g3
(I0
tp1425
g5
tp1426
Rp1427
(I1
(I1
tp1428
g12
I00
S'\x00\x00\x00\x00\x00\x00\xf0?'
p1429
tp1430
bsS'/home/paulo/Downloads/audio/SOLKOOO12AB018794A.mp3'
p1431
g2
(g3
(I0
tp1432
g5
tp1433
Rp1434
(I1
(I1
tp1435
g12
I00
S'\x00\x00\x00\x00\x00\x00\xf0?'
p1436
tp1437
bsS'/home/paulo/Downloads/audio/SOZSILE12AB01885B7.mp3'
p1438
g2
(g3
(I0
tp1439
g5
tp1440
Rp1441
(I1
(I1
tp1442
g12
I00
S'\x00\x00\x00\x00\x00\x00\xf0?'
p1443
tp1444
bsS'/home/paulo/Downloads/audio/SORSSEI12A6701E511.mp3'
p1445
g2
(g3
(I0
tp1446
g5
tp1447
Rp1448
(I1
(I1
tp1449
g12
I00
S'\x00\x00\x00\x00\x00\x00\xf0?'
p1450
tp1451
bsS'/home/paulo/Downloads/audio/SOPZBUU12A6D4F6F0C.mp3'
p1452
g2
(g3
(I0
tp1453
g5
tp1454
Rp1455
(I1
(I1
tp1456
g12
I00
S'\x00\x00\x00\x00\x00\x00\xf0?'
p1457
tp1458
bsS'/home/paulo/Downloads/audio/SOVBQGQ12AF72A9803.mp3'
p1459
g2
(g3
(I0
tp1460
g5
tp1461
Rp1462
(I1
(I1
tp1463
g12
I00
S'\x00\x00\x00\x00\x00\x00\xf0?'
p1464
tp1465
bsS'/home/paulo/Downloads/audio/SOMUEZH12A6D4F66C6.mp3'
p1466
g2
(g3
(I0
tp1467
g5
tp1468
Rp1469
(I1
(I1
tp1470
g12
I00
S'\x00\x00\x00\x00\x00\x00\xf0?'
p1471
tp1472
bsS'/home/paulo/Downloads/audio/SOFFWND12A58A796B7.mp3'
p1473
g2
(g3
(I0
tp1474
g5
tp1475
Rp1476
(I1
(I1
tp1477
g12
I00
S'\x00\x00\x00\x00\x00\x00\xf0?'
p1478
tp1479
bsS'/home/paulo/Downloads/audio/SOFGIVB12A6D4F5923.mp3'
p1480
g2
(g3
(I0
tp1481
g5
tp1482
Rp1483
(I1
(I1
tp1484
g12
I00
S'\x00\x00\x00\x00\x00\x00\xf0?'
p1485
tp1486
bsS'/home/paulo/Downloads/audio/SOMCPUY12A81C2399A.mp3'
p1487
g2
(g3
(I0
tp1488
g5
tp1489
Rp1490
(I1
(I1
tp1491
g12
I00
S'\x00\x00\x00\x00\x00\x00\xf0?'
p1492
tp1493
bsS'/home/paulo/Downloads/audio/SOGVKXX12A67ADA0B8.mp3'
p1494
g2
(g3
(I0
tp1495
g5
tp1496
Rp1497
(I1
(I1
tp1498
g12
I00
S'\x00\x00\x00\x00\x00\x00\xf0?'
p1499
tp1500
bsS'/home/paulo/Downloads/audio/SOOGZYY12A6701D9CB.mp3'
p1501
g2
(g3
(I0
tp1502
g5
tp1503
Rp1504
(I1
(I1
tp1505
g12
I00
S'\x00\x00\x00\x00\x00\x00\xf0?'
p1506
tp1507
bsS'/home/paulo/Downloads/audio/SOGHOJB12A6D4FA7DC.mp3'
p1508
g2
(g3
(I0
tp1509
g5
tp1510
Rp1511
(I1
(I1
tp1512
g12
I00
S'\x00\x00\x00\x00\x00\x00\xf0?'
p1513
tp1514
bsS'/home/paulo/Downloads/audio/SOKMNVE12A8C13BA72.mp3'
p1515
g2
(g3
(I0
tp1516
g5
tp1517
Rp1518
(I1
(I1
tp1519
g12
I00
S'\x00\x00\x00\x00\x00\x00\xf0?'
p1520
tp1521
bsS'/home/paulo/Downloads/audio/SOPDRWC12A8C141DDE.mp3'
p1522
g2
(g3
(I0
tp1523
g5
tp1524
Rp1525
(I1
(I1
tp1526
g12
I00
S'\x00\x00\x00\x00\x00\x00\xf0?'
p1527
tp1528
bsS'/home/paulo/Downloads/audio/SOBYZRW12A58A7ABF1.mp3'
p1529
g2
(g3
(I0
tp1530
g5
tp1531
Rp1532
(I1
(I1
tp1533
g12
I00
S'\x00\x00\x00\x00\x00\x00\xf0?'
p1534
tp1535
bsS'/home/paulo/Downloads/audio/SOPAEYW12A58A7DBFE.mp3'
p1536
g2
(g3
(I0
tp1537
g5
tp1538
Rp1539
(I1
(I1
tp1540
g12
I00
S'\x00\x00\x00\x00\x00\x00\xf0?'
p1541
tp1542
bsS'/home/paulo/Downloads/audio/SOJFARO12AF72A709A.mp3'
p1543
g2
(g3
(I0
tp1544
g5
tp1545
Rp1546
(I1
(I1
tp1547
g12
I00
S'\x00\x00\x00\x00\x00\x00\xf0?'
p1548
tp1549
bsS'/home/paulo/Downloads/audio/SOZKDMB12B0B80C4AC.mp3'
p1550
g2
(g3
(I0
tp1551
g5
tp1552
Rp1553
(I1
(I1
tp1554
g12
I00
S'\x00\x00\x00\x00\x00\x00\xf0?'
p1555
tp1556
bsS'/home/paulo/Downloads/audio/SOCBMFC12A6701D7BA.mp3'
p1557
g2
(g3
(I0
tp1558
g5
tp1559
Rp1560
(I1
(I1
tp1561
g12
I00
S'\x00\x00\x00\x00\x00\x00\xf0?'
p1562
tp1563
bsS'/home/paulo/Downloads/audio/SOYGHUM12AB018139C.mp3'
p1564
g2
(g3
(I0
tp1565
g5
tp1566
Rp1567
(I1
(I1
tp1568
g12
I00
S'\x00\x00\x00\x00\x00\x00\xf0?'
p1569
tp1570
bsS'/home/paulo/Downloads/audio/SOVEMJL12A8C13B645.mp3'
p1571
g2
(g3
(I0
tp1572
g5
tp1573
Rp1574
(I1
(I1
tp1575
g12
I00
S'\x00\x00\x00\x00\x00\x00\xf0?'
p1576
tp1577
bsS'/home/paulo/Downloads/audio/SOODSPH12AB01819C3.mp3'
p1578
g2
(g3
(I0
tp1579
g5
tp1580
Rp1581
(I1
(I1
tp1582
g12
I00
S'\x00\x00\x00\x00\x00\x00\xf0?'
p1583
tp1584
bsS'/home/paulo/Downloads/audio/SOXMTXB12AF729A276.mp3'
p1585
g2
(g3
(I0
tp1586
g5
tp1587
Rp1588
(I1
(I1
tp1589
g12
I00
S'\x00\x00\x00\x00\x00\x00\xf0?'
p1590
tp1591
bsS'/home/paulo/Downloads/audio/SOJUBSU12AF729FEC1.mp3'
p1592
g2
(g3
(I0
tp1593
g5
tp1594
Rp1595
(I1
(I1
tp1596
g12
I00
S'\x00\x00\x00\x00\x00\x00\xf0?'
p1597
tp1598
bsS'/home/paulo/Downloads/audio/SOLRTCP12A8C13B5F5.mp3'
p1599
g2
(g3
(I0
tp1600
g5
tp1601
Rp1602
(I1
(I1
tp1603
g12
I00
S'\x00\x00\x00\x00\x00\x00\xf0?'
p1604
tp1605
bsS'/home/paulo/Downloads/audio/SOMIPZX12A8C1410FA.mp3'
p1606
g2
(g3
(I0
tp1607
g5
tp1608
Rp1609
(I1
(I1
tp1610
g12
I00
S'\x00\x00\x00\x00\x00\x00\xf0?'
p1611
tp1612
bsS'/home/paulo/Downloads/audio/SOEAJTP12A6310D999.mp3'
p1613
g2
(g3
(I0
tp1614
g5
tp1615
Rp1616
(I1
(I1
tp1617
g12
I00
S'\x00\x00\x00\x00\x00\x00\xf0?'
p1618
tp1619
bsS'/home/paulo/Downloads/audio/SOHXKKN12A8151DCDF.mp3'
p1620
g2
(g3
(I0
tp1621
g5
tp1622
Rp1623
(I1
(I1
tp1624
g12
I00
S'\x00\x00\x00\x00\x00\x00\xf0?'
p1625
tp1626
bsS'/home/paulo/Downloads/audio/SOGPMUO12A6D4F6D31.mp3'
p1627
g2
(g3
(I0
tp1628
g5
tp1629
Rp1630
(I1
(I1
tp1631
g12
I00
S'\x00\x00\x00\x00\x00\x00\xf0?'
p1632
tp1633
bsS'/home/paulo/Downloads/audio/SOSLKVW12A6D4F7ACB.mp3'
p1634
g2
(g3
(I0
tp1635
g5
tp1636
Rp1637
(I1
(I1
tp1638
g12
I00
S'\x00\x00\x00\x00\x00\x00\xf0?'
p1639
tp1640
bsS'/home/paulo/Downloads/audio/SOMWTWK12AB01860CD.mp3'
p1641
g2
(g3
(I0
tp1642
g5
tp1643
Rp1644
(I1
(I1
tp1645
g12
I00
S'\x00\x00\x00\x00\x00\x00\xf0?'
p1646
tp1647
bsS'/home/paulo/Downloads/audio/SOIYNJG12AB01810B2.mp3'
p1648
g2
(g3
(I0
tp1649
g5
tp1650
Rp1651
(I1
(I1
tp1652
g12
I00
S'\x00\x00\x00\x00\x00\x00\xf0?'
p1653
tp1654
bsS'/home/paulo/Downloads/audio/SONQSBF12AF72ABB86.mp3'
p1655
g2
(g3
(I0
tp1656
g5
tp1657
Rp1658
(I1
(I1
tp1659
g12
I00
S'\x00\x00\x00\x00\x00\x00\xf0?'
p1660
tp1661
bsS'/home/paulo/Downloads/audio/SOYEQLD12AB017C713.mp3'
p1662
g2
(g3
(I0
tp1663
g5
tp1664
Rp1665
(I1
(I1
tp1666
g12
I00
S'\x00\x00\x00\x00\x00\x00\xf0?'
p1667
tp1668
bsS'/home/paulo/Downloads/audio/SOYWVJX12A8C13EDA9.mp3'
p1669
g2
(g3
(I0
tp1670
g5
tp1671
Rp1672
(I1
(I1
tp1673
g12
I00
S'\x00\x00\x00\x00\x00\x00\xf0?'
p1674
tp1675
bsS'/home/paulo/Downloads/audio/SOPUCYA12A8C13A694.mp3'
p1676
g2
(g3
(I0
tp1677
g5
tp1678
Rp1679
(I1
(I1
tp1680
g12
I00
S'\x00\x00\x00\x00\x00\x00\xf0?'
p1681
tp1682
bsS'/home/paulo/Downloads/audio/SOGLWGG12A6D4F8046.mp3'
p1683
g2
(g3
(I0
tp1684
g5
tp1685
Rp1686
(I1
(I1
tp1687
g12
I00
S'\x00\x00\x00\x00\x00\x00\xf0?'
p1688
tp1689
bsS'/home/paulo/Downloads/audio/SOODWNJ12AC4688DA4.mp3'
p1690
g2
(g3
(I0
tp1691
g5
tp1692
Rp1693
(I1
(I1
tp1694
g12
I00
S'\x00\x00\x00\x00\x00\x00\xf0?'
p1695
tp1696
bsS'/home/paulo/Downloads/audio/SOBLTMH12A6D4FA44D.mp3'
p1697
g2
(g3
(I0
tp1698
g5
tp1699
Rp1700
(I1
(I1
tp1701
g12
I00
S'\x00\x00\x00\x00\x00\x00\xf0?'
p1702
tp1703
bsS'/home/paulo/Downloads/audio/SOOROCA12AF72A07D1.mp3'
p1704
g2
(g3
(I0
tp1705
g5
tp1706
Rp1707
(I1
(I1
tp1708
g12
I00
S'\x00\x00\x00\x00\x00\x00\xf0?'
p1709
tp1710
bsS'/home/paulo/Downloads/audio/SOMVUAM12A8C14416D.mp3'
p1711
g2
(g3
(I0
tp1712
g5
tp1713
Rp1714
(I1
(I1
tp1715
g12
I00
S'\x00\x00\x00\x00\x00\x00\xf0?'
p1716
tp1717
bsS'/home/paulo/Downloads/audio/SOUGCDK12AC95F075F.mp3'
p1718
g2
(g3
(I0
tp1719
g5
tp1720
Rp1721
(I1
(I1
tp1722
g12
I00
S'\x00\x00\x00\x00\x00\x00\xf0?'
p1723
tp1724
bsS'/home/paulo/Downloads/audio/SOWRMTT12A8C137064.mp3'
p1725
g2
(g3
(I0
tp1726
g5
tp1727
Rp1728
(I1
(I1
tp1729
g12
I00
S'\x00\x00\x00\x00\x00\x00\xf0?'
p1730
tp1731
bsS'/home/paulo/Downloads/audio/SOKOHLQ12AF729B221.mp3'
p1732
g2
(g3
(I0
tp1733
g5
tp1734
Rp1735
(I1
(I1
tp1736
g12
I00
S'\x00\x00\x00\x00\x00\x00\xf0?'
p1737
tp1738
bsS'/home/paulo/Downloads/audio/SOKCZCN12A6D4F94CF.mp3'
p1739
g2
(g3
(I0
tp1740
g5
tp1741
Rp1742
(I1
(I1
tp1743
g12
I00
S'\x00\x00\x00\x00\x00\x00\xf0?'
p1744
tp1745
bsS'/home/paulo/Downloads/audio/SOGWJEY12AC9618862.mp3'
p1746
g2
(g3
(I0
tp1747
g5
tp1748
Rp1749
(I1
(I1
tp1750
g12
I00
S'\x00\x00\x00\x00\x00\x00\xf0?'
p1751
tp1752
bsS'/home/paulo/Downloads/audio/SOJPFPR12AB018109D.mp3'
p1753
g2
(g3
(I0
tp1754
g5
tp1755
Rp1756
(I1
(I1
tp1757
g12
I00
S'\x00\x00\x00\x00\x00\x00\xf0?'
p1758
tp1759
bsS'/home/paulo/Downloads/audio/SOWOZBR12A8C13F4F6.mp3'
p1760
g2
(g3
(I0
tp1761
g5
tp1762
Rp1763
(I1
(I1
tp1764
g12
I00
S'\x00\x00\x00\x00\x00\x00\xf0?'
p1765
tp1766
bsS'/home/paulo/Downloads/audio/SORKMCT12A8C136ED7.mp3'
p1767
g2
(g3
(I0
tp1768
g5
tp1769
Rp1770
(I1
(I1
tp1771
g12
I00
S'\x00\x00\x00\x00\x00\x00\xf0?'
p1772
tp1773
bsS'/home/paulo/Downloads/audio/SOJDMAS12B0B8079A4.mp3'
p1774
g2
(g3
(I0
tp1775
g5
tp1776
Rp1777
(I1
(I1
tp1778
g12
I00
S'\x00\x00\x00\x00\x00\x00\xf0?'
p1779
tp1780
bsS'/home/paulo/Downloads/audio/SONDWXT12A8C13C37F.mp3'
p1781
g2
(g3
(I0
tp1782
g5
tp1783
Rp1784
(I1
(I1
tp1785
g12
I00
S'\x00\x00\x00\x00\x00\x00\xf0?'
p1786
tp1787
bsS'/home/paulo/Downloads/audio/SOPTLQL12AB018D56F.mp3'
p1788
g2
(g3
(I0
tp1789
g5
tp1790
Rp1791
(I1
(I1
tp1792
g12
I00
S'\x00\x00\x00\x00\x00\x00\xf0?'
p1793
tp1794
bsS'/home/paulo/Downloads/audio/SOXERNH12A67AD8642.mp3'
p1795
g2
(g3
(I0
tp1796
g5
tp1797
Rp1798
(I1
(I1
tp1799
g12
I00
S'\x00\x00\x00\x00\x00\x00\xf0?'
p1800
tp1801
bsS'/home/paulo/Downloads/audio/SORHJAS12AB0187D3F.mp3'
p1802
g2
(g3
(I0
tp1803
g5
tp1804
Rp1805
(I1
(I1
tp1806
g12
I00
S'\x00\x00\x00\x00\x00\x00\xf0?'
p1807
tp1808
bsS'/home/paulo/Downloads/audio/SOPHRXX12A67ADA08E.mp3'
p1809
g2
(g3
(I0
tp1810
g5
tp1811
Rp1812
(I1
(I1
tp1813
g12
I00
S'\x00\x00\x00\x00\x00\x00\xf0?'
p1814
tp1815
bsS'/home/paulo/Downloads/audio/SOIUHFO12A67AD954B.mp3'
p1816
g2
(g3
(I0
tp1817
g5
tp1818
Rp1819
(I1
(I1
tp1820
g12
I00
S'\x00\x00\x00\x00\x00\x00\xf0?'
p1821
tp1822
bsS'/home/paulo/Downloads/audio/SONMEPF12A6D4F3C92.mp3'
p1823
g2
(g3
(I0
tp1824
g5
tp1825
Rp1826
(I1
(I1
tp1827
g12
I00
S'\x00\x00\x00\x00\x00\x00\xf0?'
p1828
tp1829
bsS'/home/paulo/Downloads/audio/SONIJFN12A6D4F7A7A.mp3'
p1830
g2
(g3
(I0
tp1831
g5
tp1832
Rp1833
(I1
(I1
tp1834
g12
I00
S'\x00\x00\x00\x00\x00\x00\xf0?'
p1835
tp1836
bsS'/home/paulo/Downloads/audio/SOPGOJB12A8C13B05C.mp3'
p1837
g2
(g3
(I0
tp1838
g5
tp1839
Rp1840
(I1
(I1
tp1841
g12
I00
S'\x00\x00\x00\x00\x00\x00\xf0?'
p1842
tp1843
bsS'/home/paulo/Downloads/audio/SOLIFTZ12AB017AFED.mp3'
p1844
g2
(g3
(I0
tp1845
g5
tp1846
Rp1847
(I1
(I1
tp1848
g12
I00
S'\x00\x00\x00\x00\x00\x00\xf0?'
p1849
tp1850
bsS'/home/paulo/Downloads/audio/SOAXEPS12AF729E550.mp3'
p1851
g2
(g3
(I0
tp1852
g5
tp1853
Rp1854
(I1
(I1
tp1855
g12
I00
S'\x00\x00\x00\x00\x00\x00\xf0?'
p1856
tp1857
bsS'/home/paulo/Downloads/audio/SOGSMFF12A8C13F5F9.mp3'
p1858
g2
(g3
(I0
tp1859
g5
tp1860
Rp1861
(I1
(I1
tp1862
g12
I00
S'\x00\x00\x00\x00\x00\x00\xf0?'
p1863
tp1864
bsS'/home/paulo/Downloads/audio/SOLGPOU12A58A7EA20.mp3'
p1865
g2
(g3
(I0
tp1866
g5
tp1867
Rp1868
(I1
(I1
tp1869
g12
I00
S'\x00\x00\x00\x00\x00\x00\xf0?'
p1870
tp1871
bsS'/home/paulo/Downloads/audio/SOSZAST12A6D4F6245.mp3'
p1872
g2
(g3
(I0
tp1873
g5
tp1874
Rp1875
(I1
(I1
tp1876
g12
I00
S'\x00\x00\x00\x00\x00\x00\xf0?'
p1877
tp1878
bsS'/home/paulo/Downloads/audio/SOMRPMY12AF72A1025.mp3'
p1879
g2
(g3
(I0
tp1880
g5
tp1881
Rp1882
(I1
(I1
tp1883
g12
I00
S'\x00\x00\x00\x00\x00\x00\xf0?'
p1884
tp1885
bsS'/home/paulo/Downloads/audio/SOYHKYO12AB018224C.mp3'
p1886
g2
(g3
(I0
tp1887
g5
tp1888
Rp1889
(I1
(I1
tp1890
g12
I00
S'\x00\x00\x00\x00\x00\x00\xf0?'
p1891
tp1892
bsS'/home/paulo/Downloads/audio/SOZCDWG12A6D4F81E1.mp3'
p1893
g2
(g3
(I0
tp1894
g5
tp1895
Rp1896
(I1
(I1
tp1897
g12
I00
S'\x00\x00\x00\x00\x00\x00\xf0?'
p1898
tp1899
bsS'/home/paulo/Downloads/audio/SOPWZGK12A67020744.mp3'
p1900
g2
(g3
(I0
tp1901
g5
tp1902
Rp1903
(I1
(I1
tp1904
g12
I00
S'\x00\x00\x00\x00\x00\x00\xf0?'
p1905
tp1906
bsS'/home/paulo/Downloads/audio/SOFZRXA12AC960DAB5.mp3'
p1907
g2
(g3
(I0
tp1908
g5
tp1909
Rp1910
(I1
(I1
tp1911
g12
I00
S'\x00\x00\x00\x00\x00\x00\xf0?'
p1912
tp1913
bsS'/home/paulo/Downloads/audio/SOQRHIX12A6701F955.mp3'
p1914
g2
(g3
(I0
tp1915
g5
tp1916
Rp1917
(I1
(I1
tp1918
g12
I00
S'\x00\x00\x00\x00\x00\x00\xf0?'
p1919
tp1920
bsS'/home/paulo/Downloads/audio/SOHPETF12A8C1311E0.mp3'
p1921
g2
(g3
(I0
tp1922
g5
tp1923
Rp1924
(I1
(I1
tp1925
g12
I00
S'\x00\x00\x00\x00\x00\x00\xf0?'
p1926
tp1927
bsS'/home/paulo/Downloads/audio/SOJSUQF12A67ADF6C0.mp3'
p1928
g2
(g3
(I0
tp1929
g5
tp1930
Rp1931
(I1
(I1
tp1932
g12
I00
S'\x00\x00\x00\x00\x00\x00\xf0?'
p1933
tp1934
bsS'/home/paulo/Downloads/audio/SOWOZLK12A8C136B33.mp3'
p1935
g2
(g3
(I0
tp1936
g5
tp1937
Rp1938
(I1
(I1
tp1939
g12
I00
S'\x00\x00\x00\x00\x00\x00\xf0?'
p1940
tp1941
bsS'/home/paulo/Downloads/audio/SOALBSB12A58A814C0.mp3'
p1942
g2
(g3
(I0
tp1943
g5
tp1944
Rp1945
(I1
(I1
tp1946
g12
I00
S'\x00\x00\x00\x00\x00\x00\xf0?'
p1947
tp1948
bsS'/home/paulo/Downloads/audio/SOFCIQA12A58A7EAE7.mp3'
p1949
g2
(g3
(I0
tp1950
g5
tp1951
Rp1952
(I1
(I1
tp1953
g12
I00
S'\x00\x00\x00\x00\x00\x00\xf0?'
p1954
tp1955
bsS'/home/paulo/Downloads/audio/SOTYLCV12A8C143772.mp3'
p1956
g2
(g3
(I0
tp1957
g5
tp1958
Rp1959
(I1
(I1
tp1960
g12
I00
S'\x00\x00\x00\x00\x00\x00\xf0?'
p1961
tp1962
bsS'/home/paulo/Downloads/audio/SOYFRVX12AAF3B3F3E.mp3'
p1963
g2
(g3
(I0
tp1964
g5
tp1965
Rp1966
(I1
(I1
tp1967
g12
I00
S'\x00\x00\x00\x00\x00\x00\xf0?'
p1968
tp1969
bsS'/home/paulo/Downloads/audio/SOWRGEF12A81C228A3.mp3'
p1970
g2
(g3
(I0
tp1971
g5
tp1972
Rp1973
(I1
(I1
tp1974
g12
I00
S'\x00\x00\x00\x00\x00\x00\xf0?'
p1975
tp1976
bsS'/home/paulo/Downloads/audio/SORFRGW12A8C13EB13.mp3'
p1977
g2
(g3
(I0
tp1978
g5
tp1979
Rp1980
(I1
(I1
tp1981
g12
I00
S'\x00\x00\x00\x00\x00\x00\xf0?'
p1982
tp1983
bsS'/home/paulo/Downloads/audio/SOBJCFV12A8AE469EE.mp3'
p1984
g2
(g3
(I0
tp1985
g5
tp1986
Rp1987
(I1
(I1
tp1988
g12
I00
S'\x00\x00\x00\x00\x00\x00\xf0?'
p1989
tp1990
bsS'/home/paulo/Downloads/audio/SOBOOXZ12A8C13AF83.mp3'
p1991
g2
(g3
(I0
tp1992
g5
tp1993
Rp1994
(I1
(I1
tp1995
g12
I00
S'\x00\x00\x00\x00\x00\x00\xf0?'
p1996
tp1997
bsS'/home/paulo/Downloads/audio/SOWUTFF12A8C138AB2.mp3'
p1998
g2
(g3
(I0
tp1999
g5
tp2000
Rp2001
(I1
(I1
tp2002
g12
I00
S'\x00\x00\x00\x00\x00\x00\xf0?'
p2003
tp2004
bsS'/home/paulo/Downloads/audio/SOPXKYD12A6D4FA876.mp3'
p2005
g2
(g3
(I0
tp2006
g5
tp2007
Rp2008
(I1
(I1
tp2009
g12
I00
S'\x00\x00\x00\x00\x00\x00\xf0?'
p2010
tp2011
bsS'/home/paulo/Downloads/audio/SOPNOHB12AB0186834.mp3'
p2012
g2
(g3
(I0
tp2013
g5
tp2014
Rp2015
(I1
(I1
tp2016
g12
I00
S'\x00\x00\x00\x00\x00\x00\xf0?'
p2017
tp2018
bsS'/home/paulo/Downloads/audio/SOHZPYD12AF72A12E2.mp3'
p2019
g2
(g3
(I0
tp2020
g5
tp2021
Rp2022
(I1
(I1
tp2023
g12
I00
S'\x00\x00\x00\x00\x00\x00\xf0?'
p2024
tp2025
bsS'/home/paulo/Downloads/audio/SOXXVSU12A8C133445.mp3'
p2026
g2
(g3
(I0
tp2027
g5
tp2028
Rp2029
(I1
(I1
tp2030
g12
I00
S'\x00\x00\x00\x00\x00\x00\xf0?'
p2031
tp2032
bsS'/home/paulo/Downloads/audio/SOFZXIO12A8C1362C9.mp3'
p2033
g2
(g3
(I0
tp2034
g5
tp2035
Rp2036
(I1
(I1
tp2037
g12
I00
S'\x00\x00\x00\x00\x00\x00\xf0?'
p2038
tp2039
bsS'/home/paulo/Downloads/audio/SOXLSBV12AB018397A.mp3'
p2040
g2
(g3
(I0
tp2041
g5
tp2042
Rp2043
(I1
(I1
tp2044
g12
I00
S'\x00\x00\x00\x00\x00\x00\xf0?'
p2045
tp2046
bsS'/home/paulo/Downloads/audio/SOGPNGN12A8C143969.mp3'
p2047
g2
(g3
(I0
tp2048
g5
tp2049
Rp2050
(I1
(I1
tp2051
g12
I00
S'\x00\x00\x00\x00\x00\x00\xf0?'
p2052
tp2053
bsS'/home/paulo/Downloads/audio/SOHDPUQ12A6701FB97.mp3'
p2054
g2
(g3
(I0
tp2055
g5
tp2056
Rp2057
(I1
(I1
tp2058
g12
I00
S'\x00\x00\x00\x00\x00\x00\xf0?'
p2059
tp2060
bsS'/home/paulo/Downloads/audio/SOOGBTU12AB0187CB9.mp3'
p2061
g2
(g3
(I0
tp2062
g5
tp2063
Rp2064
(I1
(I1
tp2065
g12
I00
S'\x00\x00\x00\x00\x00\x00\xf0?'
p2066
tp2067
bsS'/home/paulo/Downloads/audio/SOIZLKI12A6D4F7B61.mp3'
p2068
g2
(g3
(I0
tp2069
g5
tp2070
Rp2071
(I1
(I1
tp2072
g12
I00
S'\x00\x00\x00\x00\x00\x00\xf0?'
p2073
tp2074
bsS'/home/paulo/Downloads/audio/SOZFWXQ12A58A7C631.mp3'
p2075
g2
(g3
(I0
tp2076
g5
tp2077
Rp2078
(I1
(I1
tp2079
g12
I00
S'\x00\x00\x00\x00\x00\x00\xf0?'
p2080
tp2081
bsS'/home/paulo/Downloads/audio/SOQJAZE12A6D4F95A8.mp3'
p2082
g2
(g3
(I0
tp2083
g5
tp2084
Rp2085
(I1
(I1
tp2086
g12
I00
S'\x00\x00\x00\x00\x00\x00\xf0?'
p2087
tp2088
bsS'/home/paulo/Downloads/audio/SOAOOWF12A8C1347EC.mp3'
p2089
g2
(g3
(I0
tp2090
g5
tp2091
Rp2092
(I1
(I1
tp2093
g12
I00
S'\x00\x00\x00\x00\x00\x00\xf0?'
p2094
tp2095
bsS'/home/paulo/Downloads/audio/SOTGHQR12A8C1406C5.mp3'
p2096
g2
(g3
(I0
tp2097
g5
tp2098
Rp2099
(I1
(I1
tp2100
g12
I00
S'\x00\x00\x00\x00\x00\x00\xf0?'
p2101
tp2102
bsS'/home/paulo/Downloads/audio/SOIITXW12A8C142B66.mp3'
p2103
g2
(g3
(I0
tp2104
g5
tp2105
Rp2106
(I1
(I1
tp2107
g12
I00
S'\x00\x00\x00\x00\x00\x00\xf0?'
p2108
tp2109
bsS'/home/paulo/Downloads/audio/SOWAGYW12A67020A3A.mp3'
p2110
g2
(g3
(I0
tp2111
g5
tp2112
Rp2113
(I1
(I1
tp2114
g12
I00
S'\x00\x00\x00\x00\x00\x00\xf0?'
p2115
tp2116
bsS'/home/paulo/Downloads/audio/SOABGQW12AB017CFB2.mp3'
p2117
g2
(g3
(I0
tp2118
g5
tp2119
Rp2120
(I1
(I1
tp2121
g12
I00
S'\x00\x00\x00\x00\x00\x00\xf0?'
p2122
tp2123
bsS'/home/paulo/Downloads/audio/SOYUFEX12AB0182255.mp3'
p2124
g2
(g3
(I0
tp2125
g5
tp2126
Rp2127
(I1
(I1
tp2128
g12
I00
S'\x00\x00\x00\x00\x00\x00\xf0?'
p2129
tp2130
bsS'/home/paulo/Downloads/audio/SOIAXDW12A6D4F9466.mp3'
p2131
g2
(g3
(I0
tp2132
g5
tp2133
Rp2134
(I1
(I1
tp2135
g12
I00
S'\x00\x00\x00\x00\x00\x00\xf0?'
p2136
tp2137
bsS'/home/paulo/Downloads/audio/SOSUWJE12AB0184567.mp3'
p2138
g2
(g3
(I0
tp2139
g5
tp2140
Rp2141
(I1
(I1
tp2142
g12
I00
S'\x00\x00\x00\x00\x00\x00\xf0?'
p2143
tp2144
bsS'/home/paulo/Downloads/audio/SOMPKTP12A67020A3B.mp3'
p2145
g2
(g3
(I0
tp2146
g5
tp2147
Rp2148
(I1
(I1
tp2149
g12
I00
S'\x00\x00\x00\x00\x00\x00\xf0?'
p2150
tp2151
bsS'/home/paulo/Downloads/audio/SOAWIDW12A81C22AEB.mp3'
p2152
g2
(g3
(I0
tp2153
g5
tp2154
Rp2155
(I1
(I1
tp2156
g12
I00
S'\x00\x00\x00\x00\x00\x00\xf0?'
p2157
tp2158
bsS'/home/paulo/Downloads/audio/SOSLCRU12A6701DB0B.mp3'
p2159
g2
(g3
(I0
tp2160
g5
tp2161
Rp2162
(I1
(I1
tp2163
g12
I00
S'\x00\x00\x00\x00\x00\x00\xf0?'
p2164
tp2165
bsS'/home/paulo/Downloads/audio/SOTVZIB12A6D4F694A.mp3'
p2166
g2
(g3
(I0
tp2167
g5
tp2168
Rp2169
(I1
(I1
tp2170
g12
I00
S'\x00\x00\x00\x00\x00\x00\xf0?'
p2171
tp2172
bsS'/home/paulo/Downloads/audio/SOLGJYY12A6701C431.mp3'
p2173
g2
(g3
(I0
tp2174
g5
tp2175
Rp2176
(I1
(I1
tp2177
g12
I00
S'\x00\x00\x00\x00\x00\x00\xf0?'
p2178
tp2179
bsS'/home/paulo/Downloads/audio/SODQBES12AAFF4444C.mp3'
p2180
g2
(g3
(I0
tp2181
g5
tp2182
Rp2183
(I1
(I1
tp2184
g12
I00
S'\x00\x00\x00\x00\x00\x00\xf0?'
p2185
tp2186
bsS'/home/paulo/Downloads/audio/SOPMWXY12A58A7E908.mp3'
p2187
g2
(g3
(I0
tp2188
g5
tp2189
Rp2190
(I1
(I1
tp2191
g12
I00
S'\x00\x00\x00\x00\x00\x00\xf0?'
p2192
tp2193
bsS'/home/paulo/Downloads/audio/SOTVSBY12A6D4F74D8.mp3'
p2194
g2
(g3
(I0
tp2195
g5
tp2196
Rp2197
(I1
(I1
tp2198
g12
I00
S'\x00\x00\x00\x00\x00\x00\xf0?'
p2199
tp2200
bsS'/home/paulo/Downloads/audio/SOMXDFJ12AB0183B34.mp3'
p2201
g2
(g3
(I0
tp2202
g5
tp2203
Rp2204
(I1
(I1
tp2205
g12
I00
S'\x00\x00\x00\x00\x00\x00\xf0?'
p2206
tp2207
bsS'/home/paulo/Downloads/audio/SOSTVOA12A8C14261D.mp3'
p2208
g2
(g3
(I0
tp2209
g5
tp2210
Rp2211
(I1
(I1
tp2212
g12
I00
S'\x00\x00\x00\x00\x00\x00\xf0?'
p2213
tp2214
bsS'/home/paulo/Downloads/audio/SOSKVCM12AF729D67B.mp3'
p2215
g2
(g3
(I0
tp2216
g5
tp2217
Rp2218
(I1
(I1
tp2219
g12
I00
S'\x00\x00\x00\x00\x00\x00\xf0?'
p2220
tp2221
bsS'/home/paulo/Downloads/audio/SOAPIHX12AB0184CB1.mp3'
p2222
g2
(g3
(I0
tp2223
g5
tp2224
Rp2225
(I1
(I1
tp2226
g12
I00
S'\x00\x00\x00\x00\x00\x00\xf0?'
p2227
tp2228
bsS'/home/paulo/Downloads/audio/SOLFEWX12A8C1442C8.mp3'
p2229
g2
(g3
(I0
tp2230
g5
tp2231
Rp2232
(I1
(I1
tp2233
g12
I00
S'\x00\x00\x00\x00\x00\x00\xf0?'
p2234
tp2235
bsS'/home/paulo/Downloads/audio/SOEHTZE12A6310F0F2.mp3'
p2236
g2
(g3
(I0
tp2237
g5
tp2238
Rp2239
(I1
(I1
tp2240
g12
I00
S'\x00\x00\x00\x00\x00\x00\xf0?'
p2241
tp2242
bsS'/home/paulo/Downloads/audio/SOOXLWT12AF729D9ED.mp3'
p2243
g2
(g3
(I0
tp2244
g5
tp2245
Rp2246
(I1
(I1
tp2247
g12
I00
S'\x00\x00\x00\x00\x00\x00\xf0?'
p2248
tp2249
bsS'/home/paulo/Downloads/audio/SOBTNNG12AF72A73E8.mp3'
p2250
g2
(g3
(I0
tp2251
g5
tp2252
Rp2253
(I1
(I1
tp2254
g12
I00
S'\x00\x00\x00\x00\x00\x00\xf0?'
p2255
tp2256
bsS'/home/paulo/Downloads/audio/SOVUBST12AB018C9A4.mp3'
p2257
g2
(g3
(I0
tp2258
g5
tp2259
Rp2260
(I1
(I1
tp2261
g12
I00
S'\x00\x00\x00\x00\x00\x00\xf0?'
p2262
tp2263
bsS'/home/paulo/Downloads/audio/SOSINBC12A67ADAEF6.mp3'
p2264
g2
(g3
(I0
tp2265
g5
tp2266
Rp2267
(I1
(I1
tp2268
g12
I00
S'\x00\x00\x00\x00\x00\x00\xf0?'
p2269
tp2270
bsS'/home/paulo/Downloads/audio/SOEGIYH12A6D4FC0E3.mp3'
p2271
g2
(g3
(I0
tp2272
g5
tp2273
Rp2274
(I1
(I1
tp2275
g12
I00
S'\x00\x00\x00\x00\x00\x00\xf0?'
p2276
tp2277
bsS'/home/paulo/Downloads/audio/SOARUPP12AB01842E0.mp3'
p2278
g2
(g3
(I0
tp2279
g5
tp2280
Rp2281
(I1
(I1
tp2282
g12
I00
S'\x00\x00\x00\x00\x00\x00\xf0?'
p2283
tp2284
bsS'/home/paulo/Downloads/audio/SOKVTGU12A6701E7B1.mp3'
p2285
g2
(g3
(I0
tp2286
g5
tp2287
Rp2288
(I1
(I1
tp2289
g12
I00
S'\x00\x00\x00\x00\x00\x00\xf0?'
p2290
tp2291
bsS'/home/paulo/Downloads/audio/SOUNZHU12A8AE47481.mp3'
p2292
g2
(g3
(I0
tp2293
g5
tp2294
Rp2295
(I1
(I1
tp2296
g12
I00
S'\x00\x00\x00\x00\x00\x00\xf0?'
p2297
tp2298
bsS'/home/paulo/Downloads/audio/SOMNPAP12A8C1385D6.mp3'
p2299
g2
(g3
(I0
tp2300
g5
tp2301
Rp2302
(I1
(I1
tp2303
g12
I00
S'\x00\x00\x00\x00\x00\x00\xf0?'
p2304
tp2305
bsS'/home/paulo/Downloads/audio/SOGWKBQ12A670207C1.mp3'
p2306
g2
(g3
(I0
tp2307
g5
tp2308
Rp2309
(I1
(I1
tp2310
g12
I00
S'\x00\x00\x00\x00\x00\x00\xf0?'
p2311
tp2312
bsS'/home/paulo/Downloads/audio/SOGLKUJ12A8AE46B92.mp3'
p2313
g2
(g3
(I0
tp2314
g5
tp2315
Rp2316
(I1
(I1
tp2317
g12
I00
S'\x00\x00\x00\x00\x00\x00\xf0?'
p2318
tp2319
bsS'/home/paulo/Downloads/audio/SOMGVYU12A8C1314FF.mp3'
p2320
g2
(g3
(I0
tp2321
g5
tp2322
Rp2323
(I1
(I1
tp2324
g12
I00
S'\x00\x00\x00\x00\x00\x00\xf0?'
p2325
tp2326
bsS'/home/paulo/Downloads/audio/SOSLZXV12A8C1354C9.mp3'
p2327
g2
(g3
(I0
tp2328
g5
tp2329
Rp2330
(I1
(I1
tp2331
g12
I00
S'\x00\x00\x00\x00\x00\x00\xf0?'
p2332
tp2333
bsS'/home/paulo/Downloads/audio/SOPVQLJ12A67AE2281.mp3'
p2334
g2
(g3
(I0
tp2335
g5
tp2336
Rp2337
(I1
(I1
tp2338
g12
I00
S'\x00\x00\x00\x00\x00\x00\xf0?'
p2339
tp2340
bsS'/home/paulo/Downloads/audio/SOCBGZW12A58A7CAC2.mp3'
p2341
g2
(g3
(I0
tp2342
g5
tp2343
Rp2344
(I1
(I1
tp2345
g12
I00
S'\x00\x00\x00\x00\x00\x00\xf0?'
p2346
tp2347
bsS'/home/paulo/Downloads/audio/SORGFZZ12AB0181289.mp3'
p2348
g2
(g3
(I0
tp2349
g5
tp2350
Rp2351
(I1
(I1
tp2352
g12
I00
S'\x00\x00\x00\x00\x00\x00\xf0?'
p2353
tp2354
bsS'/home/paulo/Downloads/audio/SOLJWHN12AB017ACCE.mp3'
p2355
g2
(g3
(I0
tp2356
g5
tp2357
Rp2358
(I1
(I1
tp2359
g12
I00
S'\x00\x00\x00\x00\x00\x00\xf0?'
p2360
tp2361
bsS'/home/paulo/Downloads/audio/SOYDTRQ12AF72A3D61.mp3'
p2362
g2
(g3
(I0
tp2363
g5
tp2364
Rp2365
(I1
(I1
tp2366
g12
I00
S'\x00\x00\x00\x00\x00\x00\xf0?'
p2367
tp2368
bsS'/home/paulo/Downloads/audio/SOKFDWP12A8C1362CC.mp3'
p2369
g2
(g3
(I0
tp2370
g5
tp2371
Rp2372
(I1
(I1
tp2373
g12
I00
S'\x00\x00\x00\x00\x00\x00\xf0?'
p2374
tp2375
bsS'/home/paulo/Downloads/audio/SOUXBNY12A8C13BADB.mp3'
p2376
g2
(g3
(I0
tp2377
g5
tp2378
Rp2379
(I1
(I1
tp2380
g12
I00
S'\x00\x00\x00\x00\x00\x00\xf0?'
p2381
tp2382
bsS'/home/paulo/Downloads/audio/SOGVJCW12A6D4F8EFD.mp3'
p2383
g2
(g3
(I0
tp2384
g5
tp2385
Rp2386
(I1
(I1
tp2387
g12
I00
S'\x00\x00\x00\x00\x00\x00\xf0?'
p2388
tp2389
bsS'/home/paulo/Downloads/audio/SOXGQEM12AB0181D35.mp3'
p2390
g2
(g3
(I0
tp2391
g5
tp2392
Rp2393
(I1
(I1
tp2394
g12
I00
S'\x00\x00\x00\x00\x00\x00\xf0?'
p2395
tp2396
bsS'/home/paulo/Downloads/audio/SOFZOTX12A67ADF6DB.mp3'
p2397
g2
(g3
(I0
tp2398
g5
tp2399
Rp2400
(I1
(I1
tp2401
g12
I00
S'\x00\x00\x00\x00\x00\x00\xf0?'
p2402
tp2403
bsS'/home/paulo/Downloads/audio/SOAXGDY12AB01813B0.mp3'
p2404
g2
(g3
(I0
tp2405
g5
tp2406
Rp2407
(I1
(I1
tp2408
g12
I00
S'\x00\x00\x00\x00\x00\x00\xf0?'
p2409
tp2410
bsS'/home/paulo/Downloads/audio/SONLOQQ12A8C139AF9.mp3'
p2411
g2
(g3
(I0
tp2412
g5
tp2413
Rp2414
(I1
(I1
tp2415
g12
I00
S'\x00\x00\x00\x00\x00\x00\xf0?'
p2416
tp2417
bsS'/home/paulo/Downloads/audio/SOPMDSY12AF72A0C6F.mp3'
p2418
g2
(g3
(I0
tp2419
g5
tp2420
Rp2421
(I1
(I1
tp2422
g12
I00
S'\x00\x00\x00\x00\x00\x00\xf0?'
p2423
tp2424
bsS'/home/paulo/Downloads/audio/SOWBYZF12A6D4F9424.mp3'
p2425
g2
(g3
(I0
tp2426
g5
tp2427
Rp2428
(I1
(I1
tp2429
g12
I00
S'\x00\x00\x00\x00\x00\x00\xf0?'
p2430
tp2431
bsS'/home/paulo/Downloads/audio/SORGIAF12A81C224C2.mp3'
p2432
g2
(g3
(I0
tp2433
g5
tp2434
Rp2435
(I1
(I1
tp2436
g12
I00
S'\x00\x00\x00\x00\x00\x00\xf0?'
p2437
tp2438
bsS'/home/paulo/Downloads/audio/SOUCPBK12A58A7881A.mp3'
p2439
g2
(g3
(I0
tp2440
g5
tp2441
Rp2442
(I1
(I1
tp2443
g12
I00
S'\x00\x00\x00\x00\x00\x00\xf0?'
p2444
tp2445
bsS'/home/paulo/Downloads/audio/SORTPHZ12A8C13D374.mp3'
p2446
g2
(g3
(I0
tp2447
g5
tp2448
Rp2449
(I1
(I1
tp2450
g12
I00
S'\x00\x00\x00\x00\x00\x00\xf0?'
p2451
tp2452
bsS'/home/paulo/Downloads/audio/SOBYSRH12A8C13AE98.mp3'
p2453
g2
(g3
(I0
tp2454
g5
tp2455
Rp2456
(I1
(I1
tp2457
g12
I00
S'\x00\x00\x00\x00\x00\x00\xf0?'
p2458
tp2459
bsS'/home/paulo/Downloads/audio/SOVIZNF12AF72A710A.mp3'
p2460
g2
(g3
(I0
tp2461
g5
tp2462
Rp2463
(I1
(I1
tp2464
g12
I00
S'\x00\x00\x00\x00\x00\x00\xf0?'
p2465
tp2466
bsS'/home/paulo/Downloads/audio/SOZJWDN12A8151B851.mp3'
p2467
g2
(g3
(I0
tp2468
g5
tp2469
Rp2470
(I1
(I1
tp2471
g12
I00
S'\x00\x00\x00\x00\x00\x00\xf0?'
p2472
tp2473
bsS'/home/paulo/Downloads/audio/SOCNKUW12A8C13DE89.mp3'
p2474
g2
(g3
(I0
tp2475
g5
tp2476
Rp2477
(I1
(I1
tp2478
g12
I00
S'\x00\x00\x00\x00\x00\x00\xf0?'
p2479
tp2480
bsS'/home/paulo/Downloads/audio/SOHIROU12AB01852AF.mp3'
p2481
g2
(g3
(I0
tp2482
g5
tp2483
Rp2484
(I1
(I1
tp2485
g12
I00
S'\x00\x00\x00\x00\x00\x00\xf0?'
p2486
tp2487
bsS'/home/paulo/Downloads/audio/SOGUJGE12AF72A5BC9.mp3'
p2488
g2
(g3
(I0
tp2489
g5
tp2490
Rp2491
(I1
(I1
tp2492
g12
I00
S'\x00\x00\x00\x00\x00\x00\xf0?'
p2493
tp2494
bsS'/home/paulo/Downloads/audio/SOETHKN12AF72A65A6.mp3'
p2495
g2
(g3
(I0
tp2496
g5
tp2497
Rp2498
(I1
(I1
tp2499
g12
I00
S'\x00\x00\x00\x00\x00\x00\xf0?'
p2500
tp2501
bsS'/home/paulo/Downloads/audio/SODSAHJ12A6D4F8A26.mp3'
p2502
g2
(g3
(I0
tp2503
g5
tp2504
Rp2505
(I1
(I1
tp2506
g12
I00
S'\x00\x00\x00\x00\x00\x00\xf0?'
p2507
tp2508
bsS'/home/paulo/Downloads/audio/SOYWRZU12A6D4F66C2.mp3'
p2509
g2
(g3
(I0
tp2510
g5
tp2511
Rp2512
(I1
(I1
tp2513
g12
I00
S'\x00\x00\x00\x00\x00\x00\xf0?'
p2514
tp2515
bsS'/home/paulo/Downloads/audio/SOGHPTS12A8C1313E5.mp3'
p2516
g2
(g3
(I0
tp2517
g5
tp2518
Rp2519
(I1
(I1
tp2520
g12
I00
S'\x00\x00\x00\x00\x00\x00\xf0?'
p2521
tp2522
bsS'/home/paulo/Downloads/audio/SOHQWZJ12AB01892EC.mp3'
p2523
g2
(g3
(I0
tp2524
g5
tp2525
Rp2526
(I1
(I1
tp2527
g12
I00
S'\x00\x00\x00\x00\x00\x00\xf0?'
p2528
tp2529
bsS'/home/paulo/Downloads/audio/SOOGBWC12A8C140B96.mp3'
p2530
g2
(g3
(I0
tp2531
g5
tp2532
Rp2533
(I1
(I1
tp2534
g12
I00
S'\x00\x00\x00\x00\x00\x00\xf0?'
p2535
tp2536
bsS'/home/paulo/Downloads/audio/SOEFNWL12AF729CD2F.mp3'
p2537
g2
(g3
(I0
tp2538
g5
tp2539
Rp2540
(I1
(I1
tp2541
g12
I00
S'\x00\x00\x00\x00\x00\x00\xf0?'
p2542
tp2543
bsS'/home/paulo/Downloads/audio/SOGANEO12AB018018E.mp3'
p2544
g2
(g3
(I0
tp2545
g5
tp2546
Rp2547
(I1
(I1
tp2548
g12
I00
S'\x00\x00\x00\x00\x00\x00\xf0?'
p2549
tp2550
bsS'/home/paulo/Downloads/audio/SONWUZV12AB0180BAD.mp3'
p2551
g2
(g3
(I0
tp2552
g5
tp2553
Rp2554
(I1
(I1
tp2555
g12
I00
S'\x00\x00\x00\x00\x00\x00\xf0?'
p2556
tp2557
bsS'/home/paulo/Downloads/audio/SOMIHZH12AB01821D8.mp3'
p2558
g2
(g3
(I0
tp2559
g5
tp2560
Rp2561
(I1
(I1
tp2562
g12
I00
S'\x00\x00\x00\x00\x00\x00\xf0?'
p2563
tp2564
bsS'/home/paulo/Downloads/audio/SOIFPJU12A8C136FC6.mp3'
p2565
g2
(g3
(I0
tp2566
g5
tp2567
Rp2568
(I1
(I1
tp2569
g12
I00
S'\x00\x00\x00\x00\x00\x00\xf0?'
p2570
tp2571
bsS'/home/paulo/Downloads/audio/SOPMKMD12A67020BD9.mp3'
p2572
g2
(g3
(I0
tp2573
g5
tp2574
Rp2575
(I1
(I1
tp2576
g12
I00
S'\x00\x00\x00\x00\x00\x00\xf0?'
p2577
tp2578
bsS'/home/paulo/Downloads/audio/SONQCXC12A6D4F6A37.mp3'
p2579
g2
(g3
(I0
tp2580
g5
tp2581
Rp2582
(I1
(I1
tp2583
g12
I00
S'\x00\x00\x00\x00\x00\x00\xf0?'
p2584
tp2585
bsS'/home/paulo/Downloads/audio/SOCUBFV12AB01810BB.mp3'
p2586
g2
(g3
(I0
tp2587
g5
tp2588
Rp2589
(I1
(I1
tp2590
g12
I00
S'\x00\x00\x00\x00\x00\x00\xf0?'
p2591
tp2592
bsS'/home/paulo/Downloads/audio/SOSEKZA12A8C13FF24.mp3'
p2593
g2
(g3
(I0
tp2594
g5
tp2595
Rp2596
(I1
(I1
tp2597
g12
I00
S'\x00\x00\x00\x00\x00\x00\xf0?'
p2598
tp2599
bsS'/home/paulo/Downloads/audio/SOLOFYI12A8C145F8D.mp3'
p2600
g2
(g3
(I0
tp2601
g5
tp2602
Rp2603
(I1
(I1
tp2604
g12
I00
S'\x00\x00\x00\x00\x00\x00\xf0?'
p2605
tp2606
bsS'/home/paulo/Downloads/audio/SOLFTVV12A6BD54FFC.mp3'
p2607
g2
(g3
(I0
tp2608
g5
tp2609
Rp2610
(I1
(I1
tp2611
g12
I00
S'\x00\x00\x00\x00\x00\x00\xf0?'
p2612
tp2613
bsS'/home/paulo/Downloads/audio/SOPLUBC12A8C142B6D.mp3'
p2614
g2
(g3
(I0
tp2615
g5
tp2616
Rp2617
(I1
(I1
tp2618
g12
I00
S'\x00\x00\x00\x00\x00\x00\xf0?'
p2619
tp2620
bsS'/home/paulo/Downloads/audio/SOXTBGF12A6D4FB49C.mp3'
p2621
g2
(g3
(I0
tp2622
g5
tp2623
Rp2624
(I1
(I1
tp2625
g12
I00
S'\x00\x00\x00\x00\x00\x00\xf0?'
p2626
tp2627
bsS'/home/paulo/Downloads/audio/SOVRIZO12AF72A4C0C.mp3'
p2628
g2
(g3
(I0
tp2629
g5
tp2630
Rp2631
(I1
(I1
tp2632
g12
I00
S'\x00\x00\x00\x00\x00\x00\xf0?'
p2633
tp2634
bsS'/home/paulo/Downloads/audio/SOCGXXL12B0B808865.mp3'
p2635
g2
(g3
(I0
tp2636
g5
tp2637
Rp2638
(I1
(I1
tp2639
g12
I00
S'\x00\x00\x00\x00\x00\x00\xf0?'
p2640
tp2641
bsS'/home/paulo/Downloads/audio/SOPBGKX12A8C13D97B.mp3'
p2642
g2
(g3
(I0
tp2643
g5
tp2644
Rp2645
(I1
(I1
tp2646
g12
I00
S'\x00\x00\x00\x00\x00\x00\xf0?'
p2647
tp2648
bsS'/home/paulo/Downloads/audio/SOXSMGP12A6310DFA6.mp3'
p2649
g2
(g3
(I0
tp2650
g5
tp2651
Rp2652
(I1
(I1
tp2653
g12
I00
S'\x00\x00\x00\x00\x00\x00\xf0?'
p2654
tp2655
bsS'/home/paulo/Downloads/audio/SOFWBSS12A8C136313.mp3'
p2656
g2
(g3
(I0
tp2657
g5
tp2658
Rp2659
(I1
(I1
tp2660
g12
I00
S'\x00\x00\x00\x00\x00\x00\xf0?'
p2661
tp2662
bsS'/home/paulo/Downloads/audio/SOPIQZP12A670201C7.mp3'
p2663
g2
(g3
(I0
tp2664
g5
tp2665
Rp2666
(I1
(I1
tp2667
g12
I00
S'\x00\x00\x00\x00\x00\x00\xf0?'
p2668
tp2669
bsS'/home/paulo/Downloads/audio/SOGDQWF12A67AD954F.mp3'
p2670
g2
(g3
(I0
tp2671
g5
tp2672
Rp2673
(I1
(I1
tp2674
g12
I00
S'\x00\x00\x00\x00\x00\x00\xf0?'
p2675
tp2676
bsS'/home/paulo/Downloads/audio/SOQYLUM12A58A7CB55.mp3'
p2677
g2
(g3
(I0
tp2678
g5
tp2679
Rp2680
(I1
(I1
tp2681
g12
I00
S'\x00\x00\x00\x00\x00\x00\xf0?'
p2682
tp2683
bsS'/home/paulo/Downloads/audio/SOJPCYJ12A81C22380.mp3'
p2684
g2
(g3
(I0
tp2685
g5
tp2686
Rp2687
(I1
(I1
tp2688
g12
I00
S'\x00\x00\x00\x00\x00\x00\xf0?'
p2689
tp2690
bsS'/home/paulo/Downloads/audio/SOADISH12AB018DFAC.mp3'
p2691
g2
(g3
(I0
tp2692
g5
tp2693
Rp2694
(I1
(I1
tp2695
g12
I00
S'\x00\x00\x00\x00\x00\x00\xf0?'
p2696
tp2697
bsS'/home/paulo/Downloads/audio/SOPXWLG12A8C13E75D.mp3'
p2698
g2
(g3
(I0
tp2699
g5
tp2700
Rp2701
(I1
(I1
tp2702
g12
I00
S'\x00\x00\x00\x00\x00\x00\xf0?'
p2703
tp2704
bsS'/home/paulo/Downloads/audio/SOTKFFF12AC9072C86.mp3'
p2705
g2
(g3
(I0
tp2706
g5
tp2707
Rp2708
(I1
(I1
tp2709
g12
I00
S'\x00\x00\x00\x00\x00\x00\xf0?'
p2710
tp2711
bsS'/home/paulo/Downloads/audio/SOSPXWA12AB0181875.mp3'
p2712
g2
(g3
(I0
tp2713
g5
tp2714
Rp2715
(I1
(I1
tp2716
g12
I00
S'\x00\x00\x00\x00\x00\x00\xf0?'
p2717
tp2718
bsS'/home/paulo/Downloads/audio/SOWGIBZ12A8C136A2E.mp3'
p2719
g2
(g3
(I0
tp2720
g5
tp2721
Rp2722
(I1
(I1
tp2723
g12
I00
S'\x00\x00\x00\x00\x00\x00\xf0?'
p2724
tp2725
bsS'/home/paulo/Downloads/audio/SOGVQTZ12A6D4FB490.mp3'
p2726
g2
(g3
(I0
tp2727
g5
tp2728
Rp2729
(I1
(I1
tp2730
g12
I00
S'\x00\x00\x00\x00\x00\x00\xf0?'
p2731
tp2732
bsS'/home/paulo/Downloads/audio/SOSGAIT12AB018CC18.mp3'
p2733
g2
(g3
(I0
tp2734
g5
tp2735
Rp2736
(I1
(I1
tp2737
g12
I00
S'\x00\x00\x00\x00\x00\x00\xf0?'
p2738
tp2739
bsS'/home/paulo/Downloads/audio/SOXVIYQ12A6D4F8C9C.mp3'
p2740
g2
(g3
(I0
tp2741
g5
tp2742
Rp2743
(I1
(I1
tp2744
g12
I00
S'\x00\x00\x00\x00\x00\x00\xf0?'
p2745
tp2746
bsS'/home/paulo/Downloads/audio/SOASTSF12A8C1420B5.mp3'
p2747
g2
(g3
(I0
tp2748
g5
tp2749
Rp2750
(I1
(I1
tp2751
g12
I00
S'\x00\x00\x00\x00\x00\x00\xf0?'
p2752
tp2753
bsS'/home/paulo/Downloads/audio/SOCXJFM12A8C13EB1C.mp3'
p2754
g2
(g3
(I0
tp2755
g5
tp2756
Rp2757
(I1
(I1
tp2758
g12
I00
S'\x00\x00\x00\x00\x00\x00\xf0?'
p2759
tp2760
bsS'/home/paulo/Downloads/audio/SOXLWPN12A8C143667.mp3'
p2761
g2
(g3
(I0
tp2762
g5
tp2763
Rp2764
(I1
(I1
tp2765
g12
I00
S'\x00\x00\x00\x00\x00\x00\xf0?'
p2766
tp2767
bsS'/home/paulo/Downloads/audio/SOLSCUX12A8C13D10B.mp3'
p2768
g2
(g3
(I0
tp2769
g5
tp2770
Rp2771
(I1
(I1
tp2772
g12
I00
S'\x00\x00\x00\x00\x00\x00\xf0?'
p2773
tp2774
bsS'/home/paulo/Downloads/audio/SOFRWHG12A58A7DF46.mp3'
p2775
g2
(g3
(I0
tp2776
g5
tp2777
Rp2778
(I1
(I1
tp2779
g12
I00
S'\x00\x00\x00\x00\x00\x00\xf0?'
p2780
tp2781
bsS'/home/paulo/Downloads/audio/SOOLKLP12AF729D959.mp3'
p2782
g2
(g3
(I0
tp2783
g5
tp2784
Rp2785
(I1
(I1
tp2786
g12
I00
S'\x00\x00\x00\x00\x00\x00\xf0?'
p2787
tp2788
bsS'/home/paulo/Downloads/audio/SODMUPG12A67021CC7.mp3'
p2789
g2
(g3
(I0
tp2790
g5
tp2791
Rp2792
(I1
(I1
tp2793
g12
I00
S'\x00\x00\x00\x00\x00\x00\xf0?'
p2794
tp2795
bsS'/home/paulo/Downloads/audio/SOGNKVE12A8C13E9EE.mp3'
p2796
g2
(g3
(I0
tp2797
g5
tp2798
Rp2799
(I1
(I1
tp2800
g12
I00
S'\x00\x00\x00\x00\x00\x00\xf0?'
p2801
tp2802
bsS'/home/paulo/Downloads/audio/SOBGMYK12A6D4F6730.mp3'
p2803
g2
(g3
(I0
tp2804
g5
tp2805
Rp2806
(I1
(I1
tp2807
g12
I00
S'\x00\x00\x00\x00\x00\x00\xf0?'
p2808
tp2809
bsS'/home/paulo/Downloads/audio/SOBEVXQ12A8C13AE57.mp3'
p2810
g2
(g3
(I0
tp2811
g5
tp2812
Rp2813
(I1
(I1
tp2814
g12
I00
S'\x00\x00\x00\x00\x00\x00\xf0?'
p2815
tp2816
bsS'/home/paulo/Downloads/audio/SODHJHX12A58A7D24C.mp3'
p2817
g2
(g3
(I0
tp2818
g5
tp2819
Rp2820
(I1
(I1
tp2821
g12
I00
S'\x00\x00\x00\x00\x00\x00\xf0?'
p2822
tp2823
bsS'/home/paulo/Downloads/audio/SOGYLTC12A8C14111E.mp3'
p2824
g2
(g3
(I0
tp2825
g5
tp2826
Rp2827
(I1
(I1
tp2828
g12
I00
S'\x00\x00\x00\x00\x00\x00\xf0?'
p2829
tp2830
bsS'/home/paulo/Downloads/audio/SOAIAAT12A8C145D49.mp3'
p2831
g2
(g3
(I0
tp2832
g5
tp2833
Rp2834
(I1
(I1
tp2835
g12
I00
S'\x00\x00\x00\x00\x00\x00\xf0?'
p2836
tp2837
bsS'/home/paulo/Downloads/audio/SOMSLQP12A8C14135B.mp3'
p2838
g2
(g3
(I0
tp2839
g5
tp2840
Rp2841
(I1
(I1
tp2842
g12
I00
S'\x00\x00\x00\x00\x00\x00\xf0?'
p2843
tp2844
bsS'/home/paulo/Downloads/audio/SOCBNIS12AF72AB9D3.mp3'
p2845
g2
(g3
(I0
tp2846
g5
tp2847
Rp2848
(I1
(I1
tp2849
g12
I00
S'\x00\x00\x00\x00\x00\x00\xf0?'
p2850
tp2851
bsS'/home/paulo/Downloads/audio/SOFAMRP12AF72A069E.mp3'
p2852
g2
(g3
(I0
tp2853
g5
tp2854
Rp2855
(I1
(I1
tp2856
g12
I00
S'\x00\x00\x00\x00\x00\x00\xf0?'
p2857
tp2858
bsS'/home/paulo/Downloads/audio/SOTGOVG12A6701C573.mp3'
p2859
g2
(g3
(I0
tp2860
g5
tp2861
Rp2862
(I1
(I1
tp2863
g12
I00
S'\x00\x00\x00\x00\x00\x00\xf0?'
p2864
tp2865
bsS'/home/paulo/Downloads/audio/SOFWJHD12AB018392B.mp3'
p2866
g2
(g3
(I0
tp2867
g5
tp2868
Rp2869
(I1
(I1
tp2870
g12
I00
S'\x00\x00\x00\x00\x00\x00\xf0?'
p2871
tp2872
bsS'/home/paulo/Downloads/audio/SOHVWPV12A8C135C5B.mp3'
p2873
g2
(g3
(I0
tp2874
g5
tp2875
Rp2876
(I1
(I1
tp2877
g12
I00
S'\x00\x00\x00\x00\x00\x00\xf0?'
p2878
tp2879
bsS'/home/paulo/Downloads/audio/SOCVMXL12A6D4F6EE7.mp3'
p2880
g2
(g3
(I0
tp2881
g5
tp2882
Rp2883
(I1
(I1
tp2884
g12
I00
S'\x00\x00\x00\x00\x00\x00\xf0?'
p2885
tp2886
bsS'/home/paulo/Downloads/audio/SOXMGUX12A8C136EBC.mp3'
p2887
g2
(g3
(I0
tp2888
g5
tp2889
Rp2890
(I1
(I1
tp2891
g12
I00
S'\x00\x00\x00\x00\x00\x00\xf0?'
p2892
tp2893
bsS'/home/paulo/Downloads/audio/SOMDIFH12A6310F24B.mp3'
p2894
g2
(g3
(I0
tp2895
g5
tp2896
Rp2897
(I1
(I1
tp2898
g12
I00
S'\x00\x00\x00\x00\x00\x00\xf0?'
p2899
tp2900
bsS'/home/paulo/Downloads/audio/SOZHJKI12A81C2248F.mp3'
p2901
g2
(g3
(I0
tp2902
g5
tp2903
Rp2904
(I1
(I1
tp2905
g12
I00
S'\x00\x00\x00\x00\x00\x00\xf0?'
p2906
tp2907
bsS'/home/paulo/Downloads/audio/SOYVUDI12A81C22872.mp3'
p2908
g2
(g3
(I0
tp2909
g5
tp2910
Rp2911
(I1
(I1
tp2912
g12
I00
S'\x00\x00\x00\x00\x00\x00\xf0?'
p2913
tp2914
bsS'/home/paulo/Downloads/audio/SOKFNBL12AF72A1A41.mp3'
p2915
g2
(g3
(I0
tp2916
g5
tp2917
Rp2918
(I1
(I1
tp2919
g12
I00
S'\x00\x00\x00\x00\x00\x00\xf0?'
p2920
tp2921
bsS'/home/paulo/Downloads/audio/SOXPDDQ12A58A76829.mp3'
p2922
g2
(g3
(I0
tp2923
g5
tp2924
Rp2925
(I1
(I1
tp2926
g12
I00
S'\x00\x00\x00\x00\x00\x00\xf0?'
p2927
tp2928
bsS'/home/paulo/Downloads/audio/SONUYPZ12AC46899E2.mp3'
p2929
g2
(g3
(I0
tp2930
g5
tp2931
Rp2932
(I1
(I1
tp2933
g12
I00
S'\x00\x00\x00\x00\x00\x00\xf0?'
p2934
tp2935
bsS'/home/paulo/Downloads/audio/SOULBNJ12AB01851E9.mp3'
p2936
g2
(g3
(I0
tp2937
g5
tp2938
Rp2939
(I1
(I1
tp2940
g12
I00
S'\x00\x00\x00\x00\x00\x00\xf0?'
p2941
tp2942
bsS'/home/paulo/Downloads/audio/SOMZMOQ12A8C13A687.mp3'
p2943
g2
(g3
(I0
tp2944
g5
tp2945
Rp2946
(I1
(I1
tp2947
g12
I00
S'\x00\x00\x00\x00\x00\x00\xf0?'
p2948
tp2949
bsS'/home/paulo/Downloads/audio/SOFLJQZ12A6D4FADA6.mp3'
p2950
g2
(g3
(I0
tp2951
g5
tp2952
Rp2953
(I1
(I1
tp2954
g12
I00
S'\x00\x00\x00\x00\x00\x00\xf0?'
p2955
tp2956
bsS'/home/paulo/Downloads/audio/SOBOUPA12A6D4F81F1.mp3'
p2957
g2
(g3
(I0
tp2958
g5
tp2959
Rp2960
(I1
(I1
tp2961
g12
I00
S'\x00\x00\x00\x00\x00\x00\xf0?'
p2962
tp2963
bsS'/home/paulo/Downloads/audio/SOJEGJX12AF72A2919.mp3'
p2964
g2
(g3
(I0
tp2965
g5
tp2966
Rp2967
(I1
(I1
tp2968
g12
I00
S'\x00\x00\x00\x00\x00\x00\xf0?'
p2969
tp2970
bsS'/home/paulo/Downloads/audio/SOWBPNX12A8C13465B.mp3'
p2971
g2
(g3
(I0
tp2972
g5
tp2973
Rp2974
(I1
(I1
tp2975
g12
I00
S'\x00\x00\x00\x00\x00\x00\xf0?'
p2976
tp2977
bsS'/home/paulo/Downloads/audio/SOINDXC12A6D4F8C3C.mp3'
p2978
g2
(g3
(I0
tp2979
g5
tp2980
Rp2981
(I1
(I1
tp2982
g12
I00
S'\x00\x00\x00\x00\x00\x00\xf0?'
p2983
tp2984
bsS'/home/paulo/Downloads/audio/SOKBTWI12B0B80BD8F.mp3'
p2985
g2
(g3
(I0
tp2986
g5
tp2987
Rp2988
(I1
(I1
tp2989
g12
I00
S'\x00\x00\x00\x00\x00\x00\xf0?'
p2990
tp2991
bsS'/home/paulo/Downloads/audio/SOBUBLL12A58A795A8.mp3'
p2992
g2
(g3
(I0
tp2993
g5
tp2994
Rp2995
(I1
(I1
tp2996
g12
I00
S'\x00\x00\x00\x00\x00\x00\xf0?'
p2997
tp2998
bsS'/home/paulo/Downloads/audio/SOIZAZL12A6701C53B.mp3'
p2999
g2
(g3
(I0
tp3000
g5
tp3001
Rp3002
(I1
(I1
tp3003
g12
I00
S'\x00\x00\x00\x00\x00\x00\xf0?'
p3004
tp3005
bsS'/home/paulo/Downloads/audio/SOKUIUK12A8C13F7F0.mp3'
p3006
g2
(g3
(I0
tp3007
g5
tp3008
Rp3009
(I1
(I1
tp3010
g12
I00
S'\x00\x00\x00\x00\x00\x00\xf0?'
p3011
tp3012
bsS'/home/paulo/Downloads/audio/SOYSPYK12A81C228A0.mp3'
p3013
g2
(g3
(I0
tp3014
g5
tp3015
Rp3016
(I1
(I1
tp3017
g12
I00
S'\x00\x00\x00\x00\x00\x00\xf0?'
p3018
tp3019
bsS'/home/paulo/Downloads/audio/SOZDMZB12A6701D925.mp3'
p3020
g2
(g3
(I0
tp3021
g5
tp3022
Rp3023
(I1
(I1
tp3024
g12
I00
S'\x00\x00\x00\x00\x00\x00\xf0?'
p3025
tp3026
bsS'/home/paulo/Downloads/audio/SOSJRJP12A6D4F826F.mp3'
p3027
g2
(g3
(I0
tp3028
g5
tp3029
Rp3030
(I1
(I1
tp3031
g12
I00
S'\x00\x00\x00\x00\x00\x00\xf0?'
p3032
tp3033
bsS'/home/paulo/Downloads/audio/SORZSTP12A8C133573.mp3'
p3034
g2
(g3
(I0
tp3035
g5
tp3036
Rp3037
(I1
(I1
tp3038
g12
I00
S'\x00\x00\x00\x00\x00\x00\xf0?'
p3039
tp3040
bsS'/home/paulo/Downloads/audio/SOITMVX12AF72A089F.mp3'
p3041
g2
(g3
(I0
tp3042
g5
tp3043
Rp3044
(I1
(I1
tp3045
g12
I00
S'\x00\x00\x00\x00\x00\x00\xf0?'
p3046
tp3047
bsS'/home/paulo/Downloads/audio/SODILEO12A8C13BC53.mp3'
p3048
g2
(g3
(I0
tp3049
g5
tp3050
Rp3051
(I1
(I1
tp3052
g12
I00
S'\x00\x00\x00\x00\x00\x00\xf0?'
p3053
tp3054
bsS'/home/paulo/Downloads/audio/SOLOZRE12A8C133256.mp3'
p3055
g2
(g3
(I0
tp3056
g5
tp3057
Rp3058
(I1
(I1
tp3059
g12
I00
S'\x00\x00\x00\x00\x00\x00\xf0?'
p3060
tp3061
bsS'/home/paulo/Downloads/audio/SOGCVPU12AB017CA73.mp3'
p3062
g2
(g3
(I0
tp3063
g5
tp3064
Rp3065
(I1
(I1
tp3066
g12
I00
S'\x00\x00\x00\x00\x00\x00\xf0?'
p3067
tp3068
bsS'/home/paulo/Downloads/audio/SORFSKT12A8C1430A0.mp3'
p3069
g2
(g3
(I0
tp3070
g5
tp3071
Rp3072
(I1
(I1
tp3073
g12
I00
S'\x00\x00\x00\x00\x00\x00\xf0?'
p3074
tp3075
bsS'/home/paulo/Downloads/audio/SOXSURP12A58A7BE92.mp3'
p3076
g2
(g3
(I0
tp3077
g5
tp3078
Rp3079
(I1
(I1
tp3080
g12
I00
S'\x00\x00\x00\x00\x00\x00\xf0?'
p3081
tp3082
bsS'/home/paulo/Downloads/audio/SOKBPDK12A6D4FB679.mp3'
p3083
g2
(g3
(I0
tp3084
g5
tp3085
Rp3086
(I1
(I1
tp3087
g12
I00
S'\x00\x00\x00\x00\x00\x00\xf0?'
p3088
tp3089
bsS'/home/paulo/Downloads/audio/SOBBGTM12A6D4F6199.mp3'
p3090
g2
(g3
(I0
tp3091
g5
tp3092
Rp3093
(I1
(I1
tp3094
g12
I00
S'\x00\x00\x00\x00\x00\x00\xf0?'
p3095
tp3096
bsS'/home/paulo/Downloads/audio/SOEYIND12A6310E02E.mp3'
p3097
g2
(g3
(I0
tp3098
g5
tp3099
Rp3100
(I1
(I1
tp3101
g12
I00
S'\x00\x00\x00\x00\x00\x00\xf0?'
p3102
tp3103
bsS'/home/paulo/Downloads/audio/SOPKEIV12AB018220D.mp3'
p3104
g2
(g3
(I0
tp3105
g5
tp3106
Rp3107
(I1
(I1
tp3108
g12
I00
S'\x00\x00\x00\x00\x00\x00\xf0?'
p3109
tp3110
bsS'/home/paulo/Downloads/audio/SODCNJX12A6D4F93CB.mp3'
p3111
g2
(g3
(I0
tp3112
g5
tp3113
Rp3114
(I1
(I1
tp3115
g12
I00
S'\x00\x00\x00\x00\x00\x00\xf0?'
p3116
tp3117
bsS'/home/paulo/Downloads/audio/SOXGQCN12A8C1384FA.mp3'
p3118
g2
(g3
(I0
tp3119
g5
tp3120
Rp3121
(I1
(I1
tp3122
g12
I00
S'\x00\x00\x00\x00\x00\x00\xf0?'
p3123
tp3124
bsS'/home/paulo/Downloads/audio/SOSYXDE12A8AE45E45.mp3'
p3125
g2
(g3
(I0
tp3126
g5
tp3127
Rp3128
(I1
(I1
tp3129
g12
I00
S'\x00\x00\x00\x00\x00\x00\xf0?'
p3130
tp3131
bsS'/home/paulo/Downloads/audio/SOAVWHY12AB017C6C0.mp3'
p3132
g2
(g3
(I0
tp3133
g5
tp3134
Rp3135
(I1
(I1
tp3136
g12
I00
S'\x00\x00\x00\x00\x00\x00\xf0?'
p3137
tp3138
bsS'/home/paulo/Downloads/audio/SOPKPFW12A6D4F84BC.mp3'
p3139
g2
(g3
(I0
tp3140
g5
tp3141
Rp3142
(I1
(I1
tp3143
g12
I00
S'\x00\x00\x00\x00\x00\x00\xf0?'
p3144
tp3145
bsS'/home/paulo/Downloads/audio/SOBOAFP12A8C131F36.mp3'
p3146
g2
(g3
(I0
tp3147
g5
tp3148
Rp3149
(I1
(I1
tp3150
g12
I00
S'\x00\x00\x00\x00\x00\x00\xf0?'
p3151
tp3152
bsS'/home/paulo/Downloads/audio/SONCBGG12AB0183F8E.mp3'
p3153
g2
(g3
(I0
tp3154
g5
tp3155
Rp3156
(I1
(I1
tp3157
g12
I00
S'\x00\x00\x00\x00\x00\x00\xf0?'
p3158
tp3159
bsS'/home/paulo/Downloads/audio/SOFJAJP12AB0181E62.mp3'
p3160
g2
(g3
(I0
tp3161
g5
tp3162
Rp3163
(I1
(I1
tp3164
g12
I00
S'\x00\x00\x00\x00\x00\x00\xf0?'
p3165
tp3166
bsS'/home/paulo/Downloads/audio/SOACGVR12A8C13B60A.mp3'
p3167
g2
(g3
(I0
tp3168
g5
tp3169
Rp3170
(I1
(I1
tp3171
g12
I00
S'\x00\x00\x00\x00\x00\x00\xf0?'
p3172
tp3173
bsS'/home/paulo/Downloads/audio/SOCLANN12AC907598C.mp3'
p3174
g2
(g3
(I0
tp3175
g5
tp3176
Rp3177
(I1
(I1
tp3178
g12
I00
S'\x00\x00\x00\x00\x00\x00\xf0?'
p3179
tp3180
bsS'/home/paulo/Downloads/audio/SORMNIY12A8C13BC44.mp3'
p3181
g2
(g3
(I0
tp3182
g5
tp3183
Rp3184
(I1
(I1
tp3185
g12
I00
S'\x00\x00\x00\x00\x00\x00\xf0?'
p3186
tp3187
bsS'/home/paulo/Downloads/audio/SOMVAGR12A67AE1114.mp3'
p3188
g2
(g3
(I0
tp3189
g5
tp3190
Rp3191
(I1
(I1
tp3192
g12
I00
S'\x00\x00\x00\x00\x00\x00\xf0?'
p3193
tp3194
bsS'/home/paulo/Downloads/audio/SOSGBJB12A6D4FCDEC.mp3'
p3195
g2
(g3
(I0
tp3196
g5
tp3197
Rp3198
(I1
(I1
tp3199
g12
I00
S'\x00\x00\x00\x00\x00\x00\xf0?'
p3200
tp3201
bsS'/home/paulo/Downloads/audio/SOUANJU12A8C14278B.mp3'
p3202
g2
(g3
(I0
tp3203
g5
tp3204
Rp3205
(I1
(I1
tp3206
g12
I00
S'\x00\x00\x00\x00\x00\x00\xf0?'
p3207
tp3208
bsS'/home/paulo/Downloads/audio/SOKTUUN12AB017E5B5.mp3'
p3209
g2
(g3
(I0
tp3210
g5
tp3211
Rp3212
(I1
(I1
tp3213
g12
I00
S'\x00\x00\x00\x00\x00\x00\xf0?'
p3214
tp3215
bsS'/home/paulo/Downloads/audio/SOEXMJG12A8C13EC18.mp3'
p3216
g2
(g3
(I0
tp3217
g5
tp3218
Rp3219
(I1
(I1
tp3220
g12
I00
S'\x00\x00\x00\x00\x00\x00\xf0?'
p3221
tp3222
bsS'/home/paulo/Downloads/audio/SOBYPWB12A8C141665.mp3'
p3223
g2
(g3
(I0
tp3224
g5
tp3225
Rp3226
(I1
(I1
tp3227
g12
I00
S'\x00\x00\x00\x00\x00\x00\xf0?'
p3228
tp3229
bsS'/home/paulo/Downloads/audio/SOTQUOJ12A8C13A203.mp3'
p3230
g2
(g3
(I0
tp3231
g5
tp3232
Rp3233
(I1
(I1
tp3234
g12
I00
S'\x00\x00\x00\x00\x00\x00\xf0?'
p3235
tp3236
bsS'/home/paulo/Downloads/audio/SORJICW12A8C13640D.mp3'
p3237
g2
(g3
(I0
tp3238
g5
tp3239
Rp3240
(I1
(I1
tp3241
g12
I00
S'\x00\x00\x00\x00\x00\x00\xf0?'
p3242
tp3243
bsS'/home/paulo/Downloads/audio/SOFJCCE12AB0183F96.mp3'
p3244
g2
(g3
(I0
tp3245
g5
tp3246
Rp3247
(I1
(I1
tp3248
g12
I00
S'\x00\x00\x00\x00\x00\x00\xf0?'
p3249
tp3250
bsS'/home/paulo/Downloads/audio/SOPCTBB12AF72A1B64.mp3'
p3251
g2
(g3
(I0
tp3252
g5
tp3253
Rp3254
(I1
(I1
tp3255
g12
I00
S'\x00\x00\x00\x00\x00\x00\xf0?'
p3256
tp3257
bsS'/home/paulo/Downloads/audio/SODEHVU12AB017FCD1.mp3'
p3258
g2
(g3
(I0
tp3259
g5
tp3260
Rp3261
(I1
(I1
tp3262
g12
I00
S'\x00\x00\x00\x00\x00\x00\xf0?'
p3263
tp3264
bsS'/home/paulo/Downloads/audio/SOGJMTM12A6310E17B.mp3'
p3265
g2
(g3
(I0
tp3266
g5
tp3267
Rp3268
(I1
(I1
tp3269
g12
I00
S'\x00\x00\x00\x00\x00\x00\xf0?'
p3270
tp3271
bsS'/home/paulo/Downloads/audio/SOTGWWO12A8C13E806.mp3'
p3272
g2
(g3
(I0
tp3273
g5
tp3274
Rp3275
(I1
(I1
tp3276
g12
I00
S'\x00\x00\x00\x00\x00\x00\xf0?'
p3277
tp3278
bsS'/home/paulo/Downloads/audio/SOGCCBF12AB0188DEE.mp3'
p3279
g2
(g3
(I0
tp3280
g5
tp3281
Rp3282
(I1
(I1
tp3283
g12
I00
S'\x00\x00\x00\x00\x00\x00\xf0?'
p3284
tp3285
bsS'/home/paulo/Downloads/audio/SOXEUDZ12A8C13145B.mp3'
p3286
g2
(g3
(I0
tp3287
g5
tp3288
Rp3289
(I1
(I1
tp3290
g12
I00
S'\x00\x00\x00\x00\x00\x00\xf0?'
p3291
tp3292
bsS'/home/paulo/Downloads/audio/SOHLLRP12A6701F2F4.mp3'
p3293
g2
(g3
(I0
tp3294
g5
tp3295
Rp3296
(I1
(I1
tp3297
g12
I00
S'\x00\x00\x00\x00\x00\x00\xf0?'
p3298
tp3299
bsS'/home/paulo/Downloads/audio/SOQJKGN12A8C1425B5.mp3'
p3300
g2
(g3
(I0
tp3301
g5
tp3302
Rp3303
(I1
(I1
tp3304
g12
I00
S'\x00\x00\x00\x00\x00\x00\xf0?'
p3305
tp3306
bsS'/home/paulo/Downloads/audio/SOCCASN12B0B8069FA.mp3'
p3307
g2
(g3
(I0
tp3308
g5
tp3309
Rp3310
(I1
(I1
tp3311
g12
I00
S'\x00\x00\x00\x00\x00\x00\xf0?'
p3312
tp3313
bsS'/home/paulo/Downloads/audio/SOKJILN12AB0182BC9.mp3'
p3314
g2
(g3
(I0
tp3315
g5
tp3316
Rp3317
(I1
(I1
tp3318
g12
I00
S'\x00\x00\x00\x00\x00\x00\xf0?'
p3319
tp3320
bsS'/home/paulo/Downloads/audio/SOVYMPX12A8C1359B7.mp3'
p3321
g2
(g3
(I0
tp3322
g5
tp3323
Rp3324
(I1
(I1
tp3325
g12
I00
S'\x00\x00\x00\x00\x00\x00\xf0?'
p3326
tp3327
bsS'/home/paulo/Downloads/audio/SOHQRUK12A6701F9AD.mp3'
p3328
g2
(g3
(I0
tp3329
g5
tp3330
Rp3331
(I1
(I1
tp3332
g12
I00
S'\x00\x00\x00\x00\x00\x00\xf0?'
p3333
tp3334
bsS'/home/paulo/Downloads/audio/SOUNSQC12AC9071827.mp3'
p3335
g2
(g3
(I0
tp3336
g5
tp3337
Rp3338
(I1
(I1
tp3339
g12
I00
S'\x00\x00\x00\x00\x00\x00\xf0?'
p3340
tp3341
bsS'/home/paulo/Downloads/audio/SOGFISS12A58A7E5FE.mp3'
p3342
g2
(g3
(I0
tp3343
g5
tp3344
Rp3345
(I1
(I1
tp3346
g12
I00
S'\x00\x00\x00\x00\x00\x00\xf0?'
p3347
tp3348
bsS'/home/paulo/Downloads/audio/SOOALOT12A8C13ABD9.mp3'
p3349
g2
(g3
(I0
tp3350
g5
tp3351
Rp3352
(I1
(I1
tp3353
g12
I00
S'\x00\x00\x00\x00\x00\x00\xf0?'
p3354
tp3355
bsS'/home/paulo/Downloads/audio/SOHZDYL12A8C141C73.mp3'
p3356
g2
(g3
(I0
tp3357
g5
tp3358
Rp3359
(I1
(I1
tp3360
g12
I00
S'\x00\x00\x00\x00\x00\x00\xf0?'
p3361
tp3362
bsS'/home/paulo/Downloads/audio/SOPHBRE12A8C142825.mp3'
p3363
g2
(g3
(I0
tp3364
g5
tp3365
Rp3366
(I1
(I1
tp3367
g12
I00
S'\x00\x00\x00\x00\x00\x00\xf0?'
p3368
tp3369
bsS'/home/paulo/Downloads/audio/SOPXBSU12AB018917D.mp3'
p3370
g2
(g3
(I0
tp3371
g5
tp3372
Rp3373
(I1
(I1
tp3374
g12
I00
S'\x00\x00\x00\x00\x00\x00\xf0?'
p3375
tp3376
bsS'/home/paulo/Downloads/audio/SONAISQ12A81C2236D.mp3'
p3377
g2
(g3
(I0
tp3378
g5
tp3379
Rp3380
(I1
(I1
tp3381
g12
I00
S'\x00\x00\x00\x00\x00\x00\xf0?'
p3382
tp3383
bsS'/home/paulo/Downloads/audio/SOBGPHU12A8C1424E3.mp3'
p3384
g2
(g3
(I0
tp3385
g5
tp3386
Rp3387
(I1
(I1
tp3388
g12
I00
S'\x00\x00\x00\x00\x00\x00\xf0?'
p3389
tp3390
bsS'/home/paulo/Downloads/audio/SOPNSJN12AF72A50A6.mp3'
p3391
g2
(g3
(I0
tp3392
g5
tp3393
Rp3394
(I1
(I1
tp3395
g12
I00
S'\x00\x00\x00\x00\x00\x00\xf0?'
p3396
tp3397
bsS'/home/paulo/Downloads/audio/SOMMLDP12A8C13BA46.mp3'
p3398
g2
(g3
(I0
tp3399
g5
tp3400
Rp3401
(I1
(I1
tp3402
g12
I00
S'\x00\x00\x00\x00\x00\x00\xf0?'
p3403
tp3404
bsS'/home/paulo/Downloads/audio/SOQWYUA12A81C217E6.mp3'
p3405
g2
(g3
(I0
tp3406
g5
tp3407
Rp3408
(I1
(I1
tp3409
g12
I00
S'\x00\x00\x00\x00\x00\x00\xf0?'
p3410
tp3411
bsS'/home/paulo/Downloads/audio/SOHYRUG12A8C13599D.mp3'
p3412
g2
(g3
(I0
tp3413
g5
tp3414
Rp3415
(I1
(I1
tp3416
g12
I00
S'\x00\x00\x00\x00\x00\x00\xf0?'
p3417
tp3418
bsS'/home/paulo/Downloads/audio/SOMZRXL12A81C224B9.mp3'
p3419
g2
(g3
(I0
tp3420
g5
tp3421
Rp3422
(I1
(I1
tp3423
g12
I00
S'\x00\x00\x00\x00\x00\x00\xf0?'
p3424
tp3425
bsS'/home/paulo/Downloads/audio/SOUZBUD12A8C13FD8E.mp3'
p3426
g2
(g3
(I0
tp3427
g5
tp3428
Rp3429
(I1
(I1
tp3430
g12
I00
S'\x00\x00\x00\x00\x00\x00\xf0?'
p3431
tp3432
bsS'/home/paulo/Downloads/audio/SOTJCZJ12A58A7E54B.mp3'
p3433
g2
(g3
(I0
tp3434
g5
tp3435
Rp3436
(I1
(I1
tp3437
g12
I00
S'\x00\x00\x00\x00\x00\x00\xf0?'
p3438
tp3439
bsS'/home/paulo/Downloads/audio/SONEWOI12AAF3B3602.mp3'
p3440
g2
(g3
(I0
tp3441
g5
tp3442
Rp3443
(I1
(I1
tp3444
g12
I00
S'\x00\x00\x00\x00\x00\x00\xf0?'
p3445
tp3446
bsS'/home/paulo/Downloads/audio/SOAMFCO12A6701F117.mp3'
p3447
g2
(g3
(I0
tp3448
g5
tp3449
Rp3450
(I1
(I1
tp3451
g12
I00
S'\x00\x00\x00\x00\x00\x00\xf0?'
p3452
tp3453
bsS'/home/paulo/Downloads/audio/SOITIDA12A6D4FBC7D.mp3'
p3454
g2
(g3
(I0
tp3455
g5
tp3456
Rp3457
(I1
(I1
tp3458
g12
I00
S'\x00\x00\x00\x00\x00\x00\xf0?'
p3459
tp3460
bsS'/home/paulo/Downloads/audio/SOPWKOX12A8C139D43.mp3'
p3461
g2
(g3
(I0
tp3462
g5
tp3463
Rp3464
(I1
(I1
tp3465
g12
I00
S'\x00\x00\x00\x00\x00\x00\xf0?'
p3466
tp3467
bsS'/home/paulo/Downloads/audio/SOJMJMS12AB018566E.mp3'
p3468
g2
(g3
(I0
tp3469
g5
tp3470
Rp3471
(I1
(I1
tp3472
g12
I00
S'\x00\x00\x00\x00\x00\x00\xf0?'
p3473
tp3474
bsS'/home/paulo/Downloads/audio/SOPXLWJ12A8C132639.mp3'
p3475
g2
(g3
(I0
tp3476
g5
tp3477
Rp3478
(I1
(I1
tp3479
g12
I00
S'\x00\x00\x00\x00\x00\x00\xf0?'
p3480
tp3481
bsS'/home/paulo/Downloads/audio/SOWMDQL12A8C13FB54.mp3'
p3482
g2
(g3
(I0
tp3483
g5
tp3484
Rp3485
(I1
(I1
tp3486
g12
I00
S'\x00\x00\x00\x00\x00\x00\xf0?'
p3487
tp3488
bsS'/home/paulo/Downloads/audio/SOUWEJS12AB01868A4.mp3'
p3489
g2
(g3
(I0
tp3490
g5
tp3491
Rp3492
(I1
(I1
tp3493
g12
I00
S'\x00\x00\x00\x00\x00\x00\xf0?'
p3494
tp3495
bsS'/home/paulo/Downloads/audio/SOCTOZW12A8C13AE90.mp3'
p3496
g2
(g3
(I0
tp3497
g5
tp3498
Rp3499
(I1
(I1
tp3500
g12
I00
S'\x00\x00\x00\x00\x00\x00\xf0?'
p3501
tp3502
bsS'/home/paulo/Downloads/audio/SOLVLFW12A67020A3F.mp3'
p3503
g2
(g3
(I0
tp3504
g5
tp3505
Rp3506
(I1
(I1
tp3507
g12
I00
S'\x00\x00\x00\x00\x00\x00\xf0?'
p3508
tp3509
bsS'/home/paulo/Downloads/audio/SOLPDGD12A6701F951.mp3'
p3510
g2
(g3
(I0
tp3511
g5
tp3512
Rp3513
(I1
(I1
tp3514
g12
I00
S'\x00\x00\x00\x00\x00\x00\xf0?'
p3515
tp3516
bsS'/home/paulo/Downloads/audio/SOWKVVW12A8AE45E8C.mp3'
p3517
g2
(g3
(I0
tp3518
g5
tp3519
Rp3520
(I1
(I1
tp3521
g12
I00
S'\x00\x00\x00\x00\x00\x00\xf0?'
p3522
tp3523
bsS'/home/paulo/Downloads/audio/SOKUTUM12A6701D9CD.mp3'
p3524
g2
(g3
(I0
tp3525
g5
tp3526
Rp3527
(I1
(I1
tp3528
g12
I00
S'\x00\x00\x00\x00\x00\x00\xf0?'
p3529
tp3530
bsS'/home/paulo/Downloads/audio/SOTEFFR12A8C144765.mp3'
p3531
g2
(g3
(I0
tp3532
g5
tp3533
Rp3534
(I1
(I1
tp3535
g12
I00
S'\x00\x00\x00\x00\x00\x00\xf0?'
p3536
tp3537
bsS'/home/paulo/Downloads/audio/SOLEWHB12AB01831B3.mp3'
p3538
g2
(g3
(I0
tp3539
g5
tp3540
Rp3541
(I1
(I1
tp3542
g12
I00
S'\x00\x00\x00\x00\x00\x00\xf0?'
p3543
tp3544
bsS'/home/paulo/Downloads/audio/SOXDMAC12AB017E7FF.mp3'
p3545
g2
(g3
(I0
tp3546
g5
tp3547
Rp3548
(I1
(I1
tp3549
g12
I00
S'\x00\x00\x00\x00\x00\x00\xf0?'
p3550
tp3551
bsS'/home/paulo/Downloads/audio/SOPLUOT12A6D4F7AC3.mp3'
p3552
g2
(g3
(I0
tp3553
g5
tp3554
Rp3555
(I1
(I1
tp3556
g12
I00
S'\x00\x00\x00\x00\x00\x00\xf0?'
p3557
tp3558
bsS'/home/paulo/Downloads/audio/SOTJRSO12AB0182AE4.mp3'
p3559
g2
(g3
(I0
tp3560
g5
tp3561
Rp3562
(I1
(I1
tp3563
g12
I00
S'\x00\x00\x00\x00\x00\x00\xf0?'
p3564
tp3565
bsS'/home/paulo/Downloads/audio/SONKYVR12B0B80AF82.mp3'
p3566
g2
(g3
(I0
tp3567
g5
tp3568
Rp3569
(I1
(I1
tp3570
g12
I00
S'\x00\x00\x00\x00\x00\x00\xf0?'
p3571
tp3572
bsS'/home/paulo/Downloads/audio/SOHJOLH12A6310DFE5.mp3'
p3573
g2
(g3
(I0
tp3574
g5
tp3575
Rp3576
(I1
(I1
tp3577
g12
I00
S'\x00\x00\x00\x00\x00\x00\xf0?'
p3578
tp3579
bsS'/home/paulo/Downloads/audio/SOHFVJR12AF72A9805.mp3'
p3580
g2
(g3
(I0
tp3581
g5
tp3582
Rp3583
(I1
(I1
tp3584
g12
I00
S'\x00\x00\x00\x00\x00\x00\xf0?'
p3585
tp3586
bsS'/home/paulo/Downloads/audio/SOOKZPI12A67AD9549.mp3'
p3587
g2
(g3
(I0
tp3588
g5
tp3589
Rp3590
(I1
(I1
tp3591
g12
I00
S'\x00\x00\x00\x00\x00\x00\xf0?'
p3592
tp3593
bsS'/home/paulo/Downloads/audio/SOFTTQV12A58A7CD57.mp3'
p3594
g2
(g3
(I0
tp3595
g5
tp3596
Rp3597
(I1
(I1
tp3598
g12
I00
S'\x00\x00\x00\x00\x00\x00\xf0?'
p3599
tp3600
bsS'/home/paulo/Downloads/audio/SOPCCWV12A670205F3.mp3'
p3601
g2
(g3
(I0
tp3602
g5
tp3603
Rp3604
(I1
(I1
tp3605
g12
I00
S'\x00\x00\x00\x00\x00\x00\xf0?'
p3606
tp3607
bsS'/home/paulo/Downloads/audio/SOVPAJA12A58A77B15.mp3'
p3608
g2
(g3
(I0
tp3609
g5
tp3610
Rp3611
(I1
(I1
tp3612
g12
I00
S'\x00\x00\x00\x00\x00\x00\xf0?'
p3613
tp3614
bsS'/home/paulo/Downloads/audio/SOBTXJE12A6D4FA416.mp3'
p3615
g2
(g3
(I0
tp3616
g5
tp3617
Rp3618
(I1
(I1
tp3619
g12
I00
S'\x00\x00\x00\x00\x00\x00\xf0?'
p3620
tp3621
bsS'/home/paulo/Downloads/audio/SOBKTKO12AB01857FD.mp3'
p3622
g2
(g3
(I0
tp3623
g5
tp3624
Rp3625
(I1
(I1
tp3626
g12
I00
S'\x00\x00\x00\x00\x00\x00\xf0?'
p3627
tp3628
bsS'/home/paulo/Downloads/audio/SORJUET12A6D4F9591.mp3'
p3629
g2
(g3
(I0
tp3630
g5
tp3631
Rp3632
(I1
(I1
tp3633
g12
I00
S'\x00\x00\x00\x00\x00\x00\xf0?'
p3634
tp3635
bsS'/home/paulo/Downloads/audio/SOZAPQT12A8C142821.mp3'
p3636
g2
(g3
(I0
tp3637
g5
tp3638
Rp3639
(I1
(I1
tp3640
g12
I00
S'\x00\x00\x00\x00\x00\x00\xf0?'
p3641
tp3642
bsS'/home/paulo/Downloads/audio/SOJTLHS12A8C13F633.mp3'
p3643
g2
(g3
(I0
tp3644
g5
tp3645
Rp3646
(I1
(I1
tp3647
g12
I00
S'\x00\x00\x00\x00\x00\x00\xf0?'
p3648
tp3649
bsS'/home/paulo/Downloads/audio/SODACBL12A8C13C273.mp3'
p3650
g2
(g3
(I0
tp3651
g5
tp3652
Rp3653
(I1
(I1
tp3654
g12
I00
S'\x00\x00\x00\x00\x00\x00\xf0?'
p3655
tp3656
bsS'/home/paulo/Downloads/audio/SONRRQH12AC3DFA45F.mp3'
p3657
g2
(g3
(I0
tp3658
g5
tp3659
Rp3660
(I1
(I1
tp3661
g12
I00
S'\x00\x00\x00\x00\x00\x00\xf0?'
p3662
tp3663
bsS'/home/paulo/Downloads/audio/SOBCOWD12A6701FD78.mp3'
p3664
g2
(g3
(I0
tp3665
g5
tp3666
Rp3667
(I1
(I1
tp3668
g12
I00
S'\x00\x00\x00\x00\x00\x00\xf0?'
p3669
tp3670
bsS'/home/paulo/Downloads/audio/SOKUECJ12A6D4F6129.mp3'
p3671
g2
(g3
(I0
tp3672
g5
tp3673
Rp3674
(I1
(I1
tp3675
g12
I00
S'\x00\x00\x00\x00\x00\x00\xf0?'
p3676
tp3677
bsS'/home/paulo/Downloads/audio/SODWUBY12A6D4F8E8A.mp3'
p3678
g2
(g3
(I0
tp3679
g5
tp3680
Rp3681
(I1
(I1
tp3682
g12
I00
S'\x00\x00\x00\x00\x00\x00\xf0?'
p3683
tp3684
bsS'/home/paulo/Downloads/audio/SOEPWPM12AC468611C.mp3'
p3685
g2
(g3
(I0
tp3686
g5
tp3687
Rp3688
(I1
(I1
tp3689
g12
I00
S'\x00\x00\x00\x00\x00\x00\xf0?'
p3690
tp3691
bsS'/home/paulo/Downloads/audio/SOKVADK12A8C1359C6.mp3'
p3692
g2
(g3
(I0
tp3693
g5
tp3694
Rp3695
(I1
(I1
tp3696
g12
I00
S'\x00\x00\x00\x00\x00\x00\xf0?'
p3697
tp3698
bsS'/home/paulo/Downloads/audio/SOZKLMU12A8AE4714C.mp3'
p3699
g2
(g3
(I0
tp3700
g5
tp3701
Rp3702
(I1
(I1
tp3703
g12
I00
S'\x00\x00\x00\x00\x00\x00\xf0?'
p3704
tp3705
bsS'/home/paulo/Downloads/audio/SOSDTGC12AF72A2BC3.mp3'
p3706
g2
(g3
(I0
tp3707
g5
tp3708
Rp3709
(I1
(I1
tp3710
g12
I00
S'\x00\x00\x00\x00\x00\x00\xf0?'
p3711
tp3712
bsS'/home/paulo/Downloads/audio/SOHORHW12A8C139E45.mp3'
p3713
g2
(g3
(I0
tp3714
g5
tp3715
Rp3716
(I1
(I1
tp3717
g12
I00
S'\x00\x00\x00\x00\x00\x00\xf0?'
p3718
tp3719
bsS'/home/paulo/Downloads/audio/SONGIXY12A58A7BB42.mp3'
p3720
g2
(g3
(I0
tp3721
g5
tp3722
Rp3723
(I1
(I1
tp3724
g12
I00
S'\x00\x00\x00\x00\x00\x00\xf0?'
p3725
tp3726
bsS'/home/paulo/Downloads/audio/SOHKQUZ12A67020A3D.mp3'
p3727
g2
(g3
(I0
tp3728
g5
tp3729
Rp3730
(I1
(I1
tp3731
g12
I00
S'\x00\x00\x00\x00\x00\x00\xf0?'
p3732
tp3733
bsS'/home/paulo/Downloads/audio/SOMJJAM12A8C13B607.mp3'
p3734
g2
(g3
(I0
tp3735
g5
tp3736
Rp3737
(I1
(I1
tp3738
g12
I00
S'\x00\x00\x00\x00\x00\x00\xf0?'
p3739
tp3740
bsS'/home/paulo/Downloads/audio/SONYMUG12A8C136FE5.mp3'
p3741
g2
(g3
(I0
tp3742
g5
tp3743
Rp3744
(I1
(I1
tp3745
g12
I00
S'\x00\x00\x00\x00\x00\x00\xf0?'
p3746
tp3747
bsS'/home/paulo/Downloads/audio/SOGPWVK12A58A7B419.mp3'
p3748
g2
(g3
(I0
tp3749
g5
tp3750
Rp3751
(I1
(I1
tp3752
g12
I00
S'\x00\x00\x00\x00\x00\x00\xf0?'
p3753
tp3754
bsS'/home/paulo/Downloads/audio/SOBBCWG12AF72AB9CB.mp3'
p3755
g2
(g3
(I0
tp3756
g5
tp3757
Rp3758
(I1
(I1
tp3759
g12
I00
S'\x00\x00\x00\x00\x00\x00\xf0?'
p3760
tp3761
bsS'/home/paulo/Downloads/audio/SOCHYDE12A8C13E438.mp3'
p3762
g2
(g3
(I0
tp3763
g5
tp3764
Rp3765
(I1
(I1
tp3766
g12
I00
S'\x00\x00\x00\x00\x00\x00\xf0?'
p3767
tp3768
bsS'/home/paulo/Downloads/audio/SOQBMFK12A8C13835B.mp3'
p3769
g2
(g3
(I0
tp3770
g5
tp3771
Rp3772
(I1
(I1
tp3773
g12
I00
S'\x00\x00\x00\x00\x00\x00\xf0?'
p3774
tp3775
bsS'/home/paulo/Downloads/audio/SOPFFBU12A6D4FA7D2.mp3'
p3776
g2
(g3
(I0
tp3777
g5
tp3778
Rp3779
(I1
(I1
tp3780
g12
I00
S'\x00\x00\x00\x00\x00\x00\xf0?'
p3781
tp3782
bsS'/home/paulo/Downloads/audio/SOKXMHW12AF729EAA6.mp3'
p3783
g2
(g3
(I0
tp3784
g5
tp3785
Rp3786
(I1
(I1
tp3787
g12
I00
S'\x00\x00\x00\x00\x00\x00\xf0?'
p3788
tp3789
bsS'/home/paulo/Downloads/audio/SOALEQA12A58A77839.mp3'
p3790
g2
(g3
(I0
tp3791
g5
tp3792
Rp3793
(I1
(I1
tp3794
g12
I00
S'\x00\x00\x00\x00\x00\x00\xf0?'
p3795
tp3796
bsS'/home/paulo/Downloads/audio/SOQTFOI12AB0185675.mp3'
p3797
g2
(g3
(I0
tp3798
g5
tp3799
Rp3800
(I1
(I1
tp3801
g12
I00
S'\x00\x00\x00\x00\x00\x00\xf0?'
p3802
tp3803
bsS'/home/paulo/Downloads/audio/SOZYSDT12A8C13BFD7.mp3'
p3804
g2
(g3
(I0
tp3805
g5
tp3806
Rp3807
(I1
(I1
tp3808
g12
I00
S'\x00\x00\x00\x00\x00\x00\xf0?'
p3809
tp3810
bsS'/home/paulo/Downloads/audio/SOWBTMO12A6701C56D.mp3'
p3811
g2
(g3
(I0
tp3812
g5
tp3813
Rp3814
(I1
(I1
tp3815
g12
I00
S'\x00\x00\x00\x00\x00\x00\xf0?'
p3816
tp3817
bsS'/home/paulo/Downloads/audio/SOINIUZ12A67ADF6D8.mp3'
p3818
g2
(g3
(I0
tp3819
g5
tp3820
Rp3821
(I1
(I1
tp3822
g12
I00
S'\x00\x00\x00\x00\x00\x00\xf0?'
p3823
tp3824
bsS'/home/paulo/Downloads/audio/SOZARJQ12A6D4F66CE.mp3'
p3825
g2
(g3
(I0
tp3826
g5
tp3827
Rp3828
(I1
(I1
tp3829
g12
I00
S'\x00\x00\x00\x00\x00\x00\xf0?'
p3830
tp3831
bsS'/home/paulo/Downloads/audio/SOCNAXF12A6D4F9B34.mp3'
p3832
g2
(g3
(I0
tp3833
g5
tp3834
Rp3835
(I1
(I1
tp3836
g12
I00
S'\x00\x00\x00\x00\x00\x00\xf0?'
p3837
tp3838
bsS'/home/paulo/Downloads/audio/SOOIZTZ12A6D4FBDC7.mp3'
p3839
g2
(g3
(I0
tp3840
g5
tp3841
Rp3842
(I1
(I1
tp3843
g12
I00
S'\x00\x00\x00\x00\x00\x00\xf0?'
p3844
tp3845
bsS'/home/paulo/Downloads/audio/SOWDRRZ12A8C13AE89.mp3'
p3846
g2
(g3
(I0
tp3847
g5
tp3848
Rp3849
(I1
(I1
tp3850
g12
I00
S'\x00\x00\x00\x00\x00\x00\xf0?'
p3851
tp3852
bsS'/home/paulo/Downloads/audio/SOJVPDY12AF72A1B04.mp3'
p3853
g2
(g3
(I0
tp3854
g5
tp3855
Rp3856
(I1
(I1
tp3857
g12
I00
S'\x00\x00\x00\x00\x00\x00\xf0?'
p3858
tp3859
bsS'/home/paulo/Downloads/audio/SOARUBA12A8C138E3D.mp3'
p3860
g2
(g3
(I0
tp3861
g5
tp3862
Rp3863
(I1
(I1
tp3864
g12
I00
S'\x00\x00\x00\x00\x00\x00\xf0?'
p3865
tp3866
bsS'/home/paulo/Downloads/audio/SOFKEDR12A8C13D381.mp3'
p3867
g2
(g3
(I0
tp3868
g5
tp3869
Rp3870
(I1
(I1
tp3871
g12
I00
S'\x00\x00\x00\x00\x00\x00\xf0?'
p3872
tp3873
bsS'/home/paulo/Downloads/audio/SOVVRDZ12A6701C577.mp3'
p3874
g2
(g3
(I0
tp3875
g5
tp3876
Rp3877
(I1
(I1
tp3878
g12
I00
S'\x00\x00\x00\x00\x00\x00\xf0?'
p3879
tp3880
bsS'/home/paulo/Downloads/audio/SODLAPJ12A8C142002.mp3'
p3881
g2
(g3
(I0
tp3882
g5
tp3883
Rp3884
(I1
(I1
tp3885
g12
I00
S'\x00\x00\x00\x00\x00\x00\xf0?'
p3886
tp3887
bsS'/home/paulo/Downloads/audio/SOQSPDJ12A58A7EC6E.mp3'
p3888
g2
(g3
(I0
tp3889
g5
tp3890
Rp3891
(I1
(I1
tp3892
g12
I00
S'\x00\x00\x00\x00\x00\x00\xf0?'
p3893
tp3894
bsS'/home/paulo/Downloads/audio/SOGWXGL12A6D4F41C0.mp3'
p3895
g2
(g3
(I0
tp3896
g5
tp3897
Rp3898
(I1
(I1
tp3899
g12
I00
S'\x00\x00\x00\x00\x00\x00\xf0?'
p3900
tp3901
bsS'/home/paulo/Downloads/audio/SOHNOOC12A8C13BF35.mp3'
p3902
g2
(g3
(I0
tp3903
g5
tp3904
Rp3905
(I1
(I1
tp3906
g12
I00
S'\x00\x00\x00\x00\x00\x00\xf0?'
p3907
tp3908
bsS'/home/paulo/Downloads/audio/SOAUBGU12A6701C57A.mp3'
p3909
g2
(g3
(I0
tp3910
g5
tp3911
Rp3912
(I1
(I1
tp3913
g12
I00
S'\x00\x00\x00\x00\x00\x00\xf0?'
p3914
tp3915
bsS'/home/paulo/Downloads/audio/SOFNYFB12AB0183A73.mp3'
p3916
g2
(g3
(I0
tp3917
g5
tp3918
Rp3919
(I1
(I1
tp3920
g12
I00
S'\x00\x00\x00\x00\x00\x00\xf0?'
p3921
tp3922
bsS'/home/paulo/Downloads/audio/SOKEYJQ12A6D4F6132.mp3'
p3923
g2
(g3
(I0
tp3924
g5
tp3925
Rp3926
(I1
(I1
tp3927
g12
I00
S'\x00\x00\x00\x00\x00\x00\xf0?'
p3928
tp3929
bsS'/home/paulo/Downloads/audio/SOTBBMP12A58A79A48.mp3'
p3930
g2
(g3
(I0
tp3931
g5
tp3932
Rp3933
(I1
(I1
tp3934
g12
I00
S'\x00\x00\x00\x00\x00\x00\xf0?'
p3935
tp3936
bsS'/home/paulo/Downloads/audio/SOYONCL12A8C13B9F7.mp3'
p3937
g2
(g3
(I0
tp3938
g5
tp3939
Rp3940
(I1
(I1
tp3941
g12
I00
S'\x00\x00\x00\x00\x00\x00\xf0?'
p3942
tp3943
bsS'/home/paulo/Downloads/audio/SODXRTY12AB0180F3B.mp3'
p3944
g2
(g3
(I0
tp3945
g5
tp3946
Rp3947
(I1
(I1
tp3948
g12
I00
S'\x00\x00\x00\x00\x00\x00\xf0?'
p3949
tp3950
bsS'/home/paulo/Downloads/audio/SOHOWRD12AB018FBF5.mp3'
p3951
g2
(g3
(I0
tp3952
g5
tp3953
Rp3954
(I1
(I1
tp3955
g12
I00
S'\x00\x00\x00\x00\x00\x00\xf0?'
p3956
tp3957
bsS'/home/paulo/Downloads/audio/SOGZQHS12A8C137A12.mp3'
p3958
g2
(g3
(I0
tp3959
g5
tp3960
Rp3961
(I1
(I1
tp3962
g12
I00
S'\x00\x00\x00\x00\x00\x00\xf0?'
p3963
tp3964
bsS'/home/paulo/Downloads/audio/SOJCAVK12A8151B805.mp3'
p3965
g2
(g3
(I0
tp3966
g5
tp3967
Rp3968
(I1
(I1
tp3969
g12
I00
S'\x00\x00\x00\x00\x00\x00\xf0?'
p3970
tp3971
bsS'/home/paulo/Downloads/audio/SOYKNUX12A58A7B1C6.mp3'
p3972
g2
(g3
(I0
tp3973
g5
tp3974
Rp3975
(I1
(I1
tp3976
g12
I00
S'\x00\x00\x00\x00\x00\x00\xf0?'
p3977
tp3978
bsS'/home/paulo/Downloads/audio/SOPGMKX12AB0182B4C.mp3'
p3979
g2
(g3
(I0
tp3980
g5
tp3981
Rp3982
(I1
(I1
tp3983
g12
I00
S'\x00\x00\x00\x00\x00\x00\xf0?'
p3984
tp3985
bsS'/home/paulo/Downloads/audio/SOQTYPY12A8C13F642.mp3'
p3986
g2
(g3
(I0
tp3987
g5
tp3988
Rp3989
(I1
(I1
tp3990
g12
I00
S'\x00\x00\x00\x00\x00\x00\xf0?'
p3991
tp3992
bsS'/home/paulo/Downloads/audio/SOXAIMS12A8C137E90.mp3'
p3993
g2
(g3
(I0
tp3994
g5
tp3995
Rp3996
(I1
(I1
tp3997
g12
I00
S'\x00\x00\x00\x00\x00\x00\xf0?'
p3998
tp3999
bsS'/home/paulo/Downloads/audio/SOJOVEU12A8C140C34.mp3'
p4000
g2
(g3
(I0
tp4001
g5
tp4002
Rp4003
(I1
(I1
tp4004
g12
I00
S'\x00\x00\x00\x00\x00\x00\xf0?'
p4005
tp4006
bsS'/home/paulo/Downloads/audio/SOALITF12A6310DFCD.mp3'
p4007
g2
(g3
(I0
tp4008
g5
tp4009
Rp4010
(I1
(I1
tp4011
g12
I00
S'\x00\x00\x00\x00\x00\x00\xf0?'
p4012
tp4013
bsS'/home/paulo/Downloads/audio/SOEOUUQ12AB018182A.mp3'
p4014
g2
(g3
(I0
tp4015
g5
tp4016
Rp4017
(I1
(I1
tp4018
g12
I00
S'\x00\x00\x00\x00\x00\x00\xf0?'
p4019
tp4020
bsS'/home/paulo/Downloads/audio/SOPGPTD12A6310E032.mp3'
p4021
g2
(g3
(I0
tp4022
g5
tp4023
Rp4024
(I1
(I1
tp4025
g12
I00
S'\x00\x00\x00\x00\x00\x00\xf0?'
p4026
tp4027
bsS'/home/paulo/Downloads/audio/SOJEMSC12A6D4F81A6.mp3'
p4028
g2
(g3
(I0
tp4029
g5
tp4030
Rp4031
(I1
(I1
tp4032
g12
I00
S'\x00\x00\x00\x00\x00\x00\xf0?'
p4033
tp4034
bsS'/home/paulo/Downloads/audio/SODTQFE12A8C133B0B.mp3'
p4035
g2
(g3
(I0
tp4036
g5
tp4037
Rp4038
(I1
(I1
tp4039
g12
I00
S'\x00\x00\x00\x00\x00\x00\xf0?'
p4040
tp4041
bsS'/home/paulo/Downloads/audio/SOVWHPM12AB017DABB.mp3'
p4042
g2
(g3
(I0
tp4043
g5
tp4044
Rp4045
(I1
(I1
tp4046
g12
I00
S'\x00\x00\x00\x00\x00\x00\xf0?'
p4047
tp4048
bsS'/home/paulo/Downloads/audio/SOKDFZW12AC9072C8C.mp3'
p4049
g2
(g3
(I0
tp4050
g5
tp4051
Rp4052
(I1
(I1
tp4053
g12
I00
S'\x00\x00\x00\x00\x00\x00\xf0?'
p4054
tp4055
bsS'/home/paulo/Downloads/audio/SOIZRER12A8C137A26.mp3'
p4056
g2
(g3
(I0
tp4057
g5
tp4058
Rp4059
(I1
(I1
tp4060
g12
I00
S'\x00\x00\x00\x00\x00\x00\xf0?'
p4061
tp4062
bsS'/home/paulo/Downloads/audio/SOOXLND12A6D4FE36E.mp3'
p4063
g2
(g3
(I0
tp4064
g5
tp4065
Rp4066
(I1
(I1
tp4067
g12
I00
S'\x00\x00\x00\x00\x00\x00\xf0?'
p4068
tp4069
bsS'/home/paulo/Downloads/audio/SOQIQZU12A6D4FB8B5.mp3'
p4070
g2
(g3
(I0
tp4071
g5
tp4072
Rp4073
(I1
(I1
tp4074
g12
I00
S'\x00\x00\x00\x00\x00\x00\xf0?'
p4075
tp4076
bsS'/home/paulo/Downloads/audio/SOKYDWK12A6D4F623F.mp3'
p4077
g2
(g3
(I0
tp4078
g5
tp4079
Rp4080
(I1
(I1
tp4081
g12
I00
S'\x00\x00\x00\x00\x00\x00\xf0?'
p4082
tp4083
bsS'/home/paulo/Downloads/audio/SOHOCMM12AB01845E0.mp3'
p4084
g2
(g3
(I0
tp4085
g5
tp4086
Rp4087
(I1
(I1
tp4088
g12
I00
S'\x00\x00\x00\x00\x00\x00\xf0?'
p4089
tp4090
bsS'/home/paulo/Downloads/audio/SOCHXEH12A8C1425D2.mp3'
p4091
g2
(g3
(I0
tp4092
g5
tp4093
Rp4094
(I1
(I1
tp4095
g12
I00
S'\x00\x00\x00\x00\x00\x00\xf0?'
p4096
tp4097
bsS'/home/paulo/Downloads/audio/SOZEBAZ12AF72A80C8.mp3'
p4098
g2
(g3
(I0
tp4099
g5
tp4100
Rp4101
(I1
(I1
tp4102
g12
I00
S'\x00\x00\x00\x00\x00\x00\xf0?'
p4103
tp4104
bsS'/home/paulo/Downloads/audio/SONAEJC12A8AE45BB4.mp3'
p4105
g2
(g3
(I0
tp4106
g5
tp4107
Rp4108
(I1
(I1
tp4109
g12
I00
S'\x00\x00\x00\x00\x00\x00\xf0?'
p4110
tp4111
bsS'/home/paulo/Downloads/audio/SOKNWRZ12A8C13BF62.mp3'
p4112
g2
(g3
(I0
tp4113
g5
tp4114
Rp4115
(I1
(I1
tp4116
g12
I00
S'\x00\x00\x00\x00\x00\x00\xf0?'
p4117
tp4118
bsS'/home/paulo/Downloads/audio/SOMMKEW12A58A80F00.mp3'
p4119
g2
(g3
(I0
tp4120
g5
tp4121
Rp4122
(I1
(I1
tp4123
g12
I00
S'\x00\x00\x00\x00\x00\x00\xf0?'
p4124
tp4125
bsS'/home/paulo/Downloads/audio/SOCFPBP12AB0182D2B.mp3'
p4126
g2
(g3
(I0
tp4127
g5
tp4128
Rp4129
(I1
(I1
tp4130
g12
I00
S'\x00\x00\x00\x00\x00\x00\xf0?'
p4131
tp4132
bsS'/home/paulo/Downloads/audio/SOQWSHS12A6701C576.mp3'
p4133
g2
(g3
(I0
tp4134
g5
tp4135
Rp4136
(I1
(I1
tp4137
g12
I00
S'\x00\x00\x00\x00\x00\x00\xf0?'
p4138
tp4139
bsS'/home/paulo/Downloads/audio/SOYQLII12A8C143321.mp3'
p4140
g2
(g3
(I0
tp4141
g5
tp4142
Rp4143
(I1
(I1
tp4144
g12
I00
S'\x00\x00\x00\x00\x00\x00\xf0?'
p4145
tp4146
bsS'/home/paulo/Downloads/audio/SOVZHYS12A8C14663F.mp3'
p4147
g2
(g3
(I0
tp4148
g5
tp4149
Rp4150
(I1
(I1
tp4151
g12
I00
S'\x00\x00\x00\x00\x00\x00\xf0?'
p4152
tp4153
bsS'/home/paulo/Downloads/audio/SOVOLWT12A8C132DA5.mp3'
p4154
g2
(g3
(I0
tp4155
g5
tp4156
Rp4157
(I1
(I1
tp4158
g12
I00
S'\x00\x00\x00\x00\x00\x00\xf0?'
p4159
tp4160
bsS'/home/paulo/Downloads/audio/SOYQKPA12A8C13F31A.mp3'
p4161
g2
(g3
(I0
tp4162
g5
tp4163
Rp4164
(I1
(I1
tp4165
g12
I00
S'\x00\x00\x00\x00\x00\x00\xf0?'
p4166
tp4167
bsS'/home/paulo/Downloads/audio/SOEHHNH12AB017F715.mp3'
p4168
g2
(g3
(I0
tp4169
g5
tp4170
Rp4171
(I1
(I1
tp4172
g12
I00
S'\x00\x00\x00\x00\x00\x00\xf0?'
p4173
tp4174
bsS'/home/paulo/Downloads/audio/SOOJWBH12A6D4F64E3.mp3'
p4175
g2
(g3
(I0
tp4176
g5
tp4177
Rp4178
(I1
(I1
tp4179
g12
I00
S'\x00\x00\x00\x00\x00\x00\xf0?'
p4180
tp4181
bsS'/home/paulo/Downloads/audio/SOLMAIK12A8C13F7B5.mp3'
p4182
g2
(g3
(I0
tp4183
g5
tp4184
Rp4185
(I1
(I1
tp4186
g12
I00
S'\x00\x00\x00\x00\x00\x00\xf0?'
p4187
tp4188
bsS'/home/paulo/Downloads/audio/SOOURJG12A8C13A9F3.mp3'
p4189
g2
(g3
(I0
tp4190
g5
tp4191
Rp4192
(I1
(I1
tp4193
g12
I00
S'\x00\x00\x00\x00\x00\x00\xf0?'
p4194
tp4195
bsS'/home/paulo/Downloads/audio/SOFFWDQ12A8C13B433.mp3'
p4196
g2
(g3
(I0
tp4197
g5
tp4198
Rp4199
(I1
(I1
tp4200
g12
I00
S'\x00\x00\x00\x00\x00\x00\xf0?'
p4201
tp4202
bsS'/home/paulo/Downloads/audio/SOMHMQW12A8C14098B.mp3'
p4203
g2
(g3
(I0
tp4204
g5
tp4205
Rp4206
(I1
(I1
tp4207
g12
I00
S'\x00\x00\x00\x00\x00\x00\xf0?'
p4208
tp4209
bsS'/home/paulo/Downloads/audio/SOJITNW12A8C13D951.mp3'
p4210
g2
(g3
(I0
tp4211
g5
tp4212
Rp4213
(I1
(I1
tp4214
g12
I00
S'\x00\x00\x00\x00\x00\x00\xf0?'
p4215
tp4216
bsS'/home/paulo/Downloads/audio/SOKLADX12A8C13AA37.mp3'
p4217
g2
(g3
(I0
tp4218
g5
tp4219
Rp4220
(I1
(I1
tp4221
g12
I00
S'\x00\x00\x00\x00\x00\x00\xf0?'
p4222
tp4223
bsS'/home/paulo/Downloads/audio/SOHEGSJ12AB0183790.mp3'
p4224
g2
(g3
(I0
tp4225
g5
tp4226
Rp4227
(I1
(I1
tp4228
g12
I00
S'\x00\x00\x00\x00\x00\x00\xf0?'
p4229
tp4230
bsS'/home/paulo/Downloads/audio/SOMCAFM12A58A7B024.mp3'
p4231
g2
(g3
(I0
tp4232
g5
tp4233
Rp4234
(I1
(I1
tp4235
g12
I00
S'\x00\x00\x00\x00\x00\x00\xf0?'
p4236
tp4237
bsS'/home/paulo/Downloads/audio/SOUHQHP12AB017FCA7.mp3'
p4238
g2
(g3
(I0
tp4239
g5
tp4240
Rp4241
(I1
(I1
tp4242
g12
I00
S'\x00\x00\x00\x00\x00\x00\xf0?'
p4243
tp4244
bsS'/home/paulo/Downloads/audio/SOQIXUL12A6D4FAE93.mp3'
p4245
g2
(g3
(I0
tp4246
g5
tp4247
Rp4248
(I1
(I1
tp4249
g12
I00
S'\x00\x00\x00\x00\x00\x00\xf0?'
p4250
tp4251
bsS'/home/paulo/Downloads/audio/SOHNGUW12A81C22370.mp3'
p4252
g2
(g3
(I0
tp4253
g5
tp4254
Rp4255
(I1
(I1
tp4256
g12
I00
S'\x00\x00\x00\x00\x00\x00\xf0?'
p4257
tp4258
bsS'/home/paulo/Downloads/audio/SORQVPO12AF72A690C.mp3'
p4259
g2
(g3
(I0
tp4260
g5
tp4261
Rp4262
(I1
(I1
tp4263
g12
I00
S'\x00\x00\x00\x00\x00\x00\xf0?'
p4264
tp4265
bsS'/home/paulo/Downloads/audio/SOOZNZY12A8151B80A.mp3'
p4266
g2
(g3
(I0
tp4267
g5
tp4268
Rp4269
(I1
(I1
tp4270
g12
I00
S'\x00\x00\x00\x00\x00\x00\xf0?'
p4271
tp4272
bsS'/home/paulo/Downloads/audio/SOWKLEE12A81C232AC.mp3'
p4273
g2
(g3
(I0
tp4274
g5
tp4275
Rp4276
(I1
(I1
tp4277
g12
I00
S'\x00\x00\x00\x00\x00\x00\xf0?'
p4278
tp4279
bsS'/home/paulo/Downloads/audio/SOCAHRT12A8C13A1A4.mp3'
p4280
g2
(g3
(I0
tp4281
g5
tp4282
Rp4283
(I1
(I1
tp4284
g12
I00
S'\x00\x00\x00\x00\x00\x00\xf0?'
p4285
tp4286
bsS'/home/paulo/Downloads/audio/SOXUMBC12AB018DA2B.mp3'
p4287
g2
(g3
(I0
tp4288
g5
tp4289
Rp4290
(I1
(I1
tp4291
g12
I00
S'\x00\x00\x00\x00\x00\x00\xf0?'
p4292
tp4293
bsS'/home/paulo/Downloads/audio/SOLKDYK12AB018DA3C.mp3'
p4294
g2
(g3
(I0
tp4295
g5
tp4296
Rp4297
(I1
(I1
tp4298
g12
I00
S'\x00\x00\x00\x00\x00\x00\xf0?'
p4299
tp4300
bsS'/home/paulo/Downloads/audio/SOWQBBT12AC4686122.mp3'
p4301
g2
(g3
(I0
tp4302
g5
tp4303
Rp4304
(I1
(I1
tp4305
g12
I00
S'\x00\x00\x00\x00\x00\x00\xf0?'
p4306
tp4307
bsS'/home/paulo/Downloads/audio/SOYGPCH12A8151BD66.mp3'
p4308
g2
(g3
(I0
tp4309
g5
tp4310
Rp4311
(I1
(I1
tp4312
g12
I00
S'\x00\x00\x00\x00\x00\x00\xf0?'
p4313
tp4314
bsS'/home/paulo/Downloads/audio/SOWOMMY127F8096DF9.mp3'
p4315
g2
(g3
(I0
tp4316
g5
tp4317
Rp4318
(I1
(I1
tp4319
g12
I00
S'\x00\x00\x00\x00\x00\x00\xf0?'
p4320
tp4321
bsS'/home/paulo/Downloads/audio/SOAZZRU12AB0182B0E.mp3'
p4322
g2
(g3
(I0
tp4323
g5
tp4324
Rp4325
(I1
(I1
tp4326
g12
I00
S'\x00\x00\x00\x00\x00\x00\xf0?'
p4327
tp4328
bsS'/home/paulo/Downloads/audio/SOJSTYO12A8C13F200.mp3'
p4329
g2
(g3
(I0
tp4330
g5
tp4331
Rp4332
(I1
(I1
tp4333
g12
I00
S'\x00\x00\x00\x00\x00\x00\xf0?'
p4334
tp4335
bsS'/home/paulo/Downloads/audio/SOJHVZZ12A58A75BBE.mp3'
p4336
g2
(g3
(I0
tp4337
g5
tp4338
Rp4339
(I1
(I1
tp4340
g12
I00
S'\x00\x00\x00\x00\x00\x00\xf0?'
p4341
tp4342
bsS'/home/paulo/Downloads/audio/SODRUCE12A8C141123.mp3'
p4343
g2
(g3
(I0
tp4344
g5
tp4345
Rp4346
(I1
(I1
tp4347
g12
I00
S'\x00\x00\x00\x00\x00\x00\xf0?'
p4348
tp4349
bsS'/home/paulo/Downloads/audio/SOHWMES12A67AE0D06.mp3'
p4350
g2
(g3
(I0
tp4351
g5
tp4352
Rp4353
(I1
(I1
tp4354
g12
I00
S'\x00\x00\x00\x00\x00\x00\xf0?'
p4355
tp4356
bsS'/home/paulo/Downloads/audio/SODMBJL12A8C13EB1A.mp3'
p4357
g2
(g3
(I0
tp4358
g5
tp4359
Rp4360
(I1
(I1
tp4361
g12
I00
S'\x00\x00\x00\x00\x00\x00\xf0?'
p4362
tp4363
bsS'/home/paulo/Downloads/audio/SOWJENM12AC4686110.mp3'
p4364
g2
(g3
(I0
tp4365
g5
tp4366
Rp4367
(I1
(I1
tp4368
g12
I00
S'\x00\x00\x00\x00\x00\x00\xf0?'
p4369
tp4370
bsS'/home/paulo/Downloads/audio/SOGEFOF12A81C2235D.mp3'
p4371
g2
(g3
(I0
tp4372
g5
tp4373
Rp4374
(I1
(I1
tp4375
g12
I00
S'\x00\x00\x00\x00\x00\x00\xf0?'
p4376
tp4377
bsS'/home/paulo/Downloads/audio/SOQZBYZ12A6701E7B0.mp3'
p4378
g2
(g3
(I0
tp4379
g5
tp4380
Rp4381
(I1
(I1
tp4382
g12
I00
S'\x00\x00\x00\x00\x00\x00\xf0?'
p4383
tp4384
bsS'/home/paulo/Downloads/audio/SOJNFQR12A8C13F5E9.mp3'
p4385
g2
(g3
(I0
tp4386
g5
tp4387
Rp4388
(I1
(I1
tp4389
g12
I00
S'\x00\x00\x00\x00\x00\x00\xf0?'
p4390
tp4391
bsS'/home/paulo/Downloads/audio/SOEKSGJ12A67AE227E.mp3'
p4392
g2
(g3
(I0
tp4393
g5
tp4394
Rp4395
(I1
(I1
tp4396
g12
I00
S'\x00\x00\x00\x00\x00\x00\xf0?'
p4397
tp4398
bsS'/home/paulo/Downloads/audio/SOMWCVL12AF729E81A.mp3'
p4399
g2
(g3
(I0
tp4400
g5
tp4401
Rp4402
(I1
(I1
tp4403
g12
I00
S'\x00\x00\x00\x00\x00\x00\xf0?'
p4404
tp4405
bsS'/home/paulo/Downloads/audio/SODJTHN12AF72A8FCD.mp3'
p4406
g2
(g3
(I0
tp4407
g5
tp4408
Rp4409
(I1
(I1
tp4410
g12
I00
S'\x00\x00\x00\x00\x00\x00\xf0?'
p4411
tp4412
bsS'/home/paulo/Downloads/audio/SOOZZGS12A6D4FBDF8.mp3'
p4413
g2
(g3
(I0
tp4414
g5
tp4415
Rp4416
(I1
(I1
tp4417
g12
I00
S'\x00\x00\x00\x00\x00\x00\xf0?'
p4418
tp4419
bsS'/home/paulo/Downloads/audio/SOPGCXT12A8C138AD1.mp3'
p4420
g2
(g3
(I0
tp4421
g5
tp4422
Rp4423
(I1
(I1
tp4424
g12
I00
S'\x00\x00\x00\x00\x00\x00\xf0?'
p4425
tp4426
bsS'/home/paulo/Downloads/audio/SOETQJP12A6D4F6731.mp3'
p4427
g2
(g3
(I0
tp4428
g5
tp4429
Rp4430
(I1
(I1
tp4431
g12
I00
S'\x00\x00\x00\x00\x00\x00\xf0?'
p4432
tp4433
bsS'/home/paulo/Downloads/audio/SODOWQF12A81C2371B.mp3'
p4434
g2
(g3
(I0
tp4435
g5
tp4436
Rp4437
(I1
(I1
tp4438
g12
I00
S'\x00\x00\x00\x00\x00\x00\xf0?'
p4439
tp4440
bsS'/home/paulo/Downloads/audio/SOHZPIK12A58A7CCAE.mp3'
p4441
g2
(g3
(I0
tp4442
g5
tp4443
Rp4444
(I1
(I1
tp4445
g12
I00
S'\x00\x00\x00\x00\x00\x00\xf0?'
p4446
tp4447
bsS'/home/paulo/Downloads/audio/SOFSIKY12AF72A0807.mp3'
p4448
g2
(g3
(I0
tp4449
g5
tp4450
Rp4451
(I1
(I1
tp4452
g12
I00
S'\x00\x00\x00\x00\x00\x00\xf0?'
p4453
tp4454
bsS'/home/paulo/Downloads/audio/SOKVSAH12A8C133C6D.mp3'
p4455
g2
(g3
(I0
tp4456
g5
tp4457
Rp4458
(I1
(I1
tp4459
g12
I00
S'\x00\x00\x00\x00\x00\x00\xf0?'
p4460
tp4461
bsS'/home/paulo/Downloads/audio/SOTMMSE12A8C1410FF.mp3'
p4462
g2
(g3
(I0
tp4463
g5
tp4464
Rp4465
(I1
(I1
tp4466
g12
I00
S'\x00\x00\x00\x00\x00\x00\xf0?'
p4467
tp4468
bsS'/home/paulo/Downloads/audio/SOAGIAY12AB0183D8F.mp3'
p4469
g2
(g3
(I0
tp4470
g5
tp4471
Rp4472
(I1
(I1
tp4473
g12
I00
S'\x00\x00\x00\x00\x00\x00\xf0?'
p4474
tp4475
bsS'/home/paulo/Downloads/audio/SOAOERV12AF72A48FC.mp3'
p4476
g2
(g3
(I0
tp4477
g5
tp4478
Rp4479
(I1
(I1
tp4480
g12
I00
S'\x00\x00\x00\x00\x00\x00\xf0?'
p4481
tp4482
bsS'/home/paulo/Downloads/audio/SOXAJDB12A8C13AB22.mp3'
p4483
g2
(g3
(I0
tp4484
g5
tp4485
Rp4486
(I1
(I1
tp4487
g12
I00
S'\x00\x00\x00\x00\x00\x00\xf0?'
p4488
tp4489
bs.